
PROJECT_MP.elf:     file format elf32-littlenios2
PROJECT_MP.elf
architecture: nios2:r1, flags 0x00000112:
EXEC_P, HAS_SYMS, D_PAGED
start address 0x04000230

Program Header:
    LOAD off    0x00001000 vaddr 0x04000000 paddr 0x04000000 align 2**12
         filesz 0x00000020 memsz 0x00000020 flags r-x
    LOAD off    0x00001020 vaddr 0x04000020 paddr 0x04000020 align 2**12
         filesz 0x0002c488 memsz 0x0002c488 flags r-x
    LOAD off    0x0002d4a8 vaddr 0x0402c4a8 paddr 0x0403be88 align 2**12
         filesz 0x0000f9e0 memsz 0x0000f9e0 flags rw-
    LOAD off    0x0003d868 vaddr 0x0404b868 paddr 0x0404b868 align 2**12
         filesz 0x00000000 memsz 0x00000160 flags rw-

Sections:
Idx Name          Size      VMA       LMA       File off  Algn
  0 .entry        00000020  04000000  04000000  00001000  2**5
                  CONTENTS, ALLOC, LOAD, READONLY, CODE
  1 .exceptions   00000210  04000020  04000020  00001020  2**2
                  CONTENTS, ALLOC, LOAD, READONLY, CODE
  2 .text         0002a768  04000230  04000230  00001230  2**2
                  CONTENTS, ALLOC, LOAD, READONLY, CODE
  3 .rodata       00001b10  0402a998  0402a998  0002b998  2**2
                  CONTENTS, ALLOC, LOAD, READONLY, DATA
  4 .rwdata       0000f9e0  0402c4a8  0403be88  0002d4a8  2**2
                  CONTENTS, ALLOC, LOAD, DATA, SMALL_DATA
  5 .bss          00000160  0404b868  0404b868  0003d868  2**2
                  ALLOC, SMALL_DATA
  6 .SDRAM        00000000  0404b9c8  0404b9c8  0003ce88  2**0
                  CONTENTS
  7 .VGA_PIXEL_RAM 00000000  08000000  08000000  0003ce88  2**0
                  CONTENTS
  8 .comment      00000023  00000000  00000000  0003ce88  2**0
                  CONTENTS, READONLY
  9 .debug_aranges 00000f80  00000000  00000000  0003ceb0  2**3
                  CONTENTS, READONLY, DEBUGGING
 10 .debug_info   00026c49  00000000  00000000  0003de30  2**0
                  CONTENTS, READONLY, DEBUGGING
 11 .debug_abbrev 00009967  00000000  00000000  00064a79  2**0
                  CONTENTS, READONLY, DEBUGGING
 12 .debug_line   0000e13a  00000000  00000000  0006e3e0  2**0
                  CONTENTS, READONLY, DEBUGGING
 13 .debug_frame  00002824  00000000  00000000  0007c51c  2**2
                  CONTENTS, READONLY, DEBUGGING
 14 .debug_str    00004049  00000000  00000000  0007ed40  2**0
                  CONTENTS, READONLY, DEBUGGING
 15 .debug_loc    00017a78  00000000  00000000  00082d89  2**0
                  CONTENTS, READONLY, DEBUGGING
 16 .debug_alt_sim_info 00000010  00000000  00000000  0009a804  2**2
                  CONTENTS, READONLY, DEBUGGING
 17 .debug_ranges 00001928  00000000  00000000  0009a818  2**3
                  CONTENTS, READONLY, DEBUGGING
 18 .thread_model 00000003  00000000  00000000  0009fcda  2**0
                  CONTENTS, READONLY
 19 .cpu          00000005  00000000  00000000  0009fcdd  2**0
                  CONTENTS, READONLY
 20 .qsys         00000001  00000000  00000000  0009fce2  2**0
                  CONTENTS, READONLY
 21 .simulation_enabled 00000001  00000000  00000000  0009fce3  2**0
                  CONTENTS, READONLY
 22 .sysid_hash   00000004  00000000  00000000  0009fce4  2**0
                  CONTENTS, READONLY
 23 .sysid_base   00000004  00000000  00000000  0009fce8  2**0
                  CONTENTS, READONLY
 24 .sysid_time   00000004  00000000  00000000  0009fcec  2**0
                  CONTENTS, READONLY
 25 .stderr_dev   0000000b  00000000  00000000  0009fcf0  2**0
                  CONTENTS, READONLY
 26 .stdin_dev    0000000b  00000000  00000000  0009fcfb  2**0
                  CONTENTS, READONLY
 27 .stdout_dev   0000000b  00000000  00000000  0009fd06  2**0
                  CONTENTS, READONLY
 28 .sopc_system_name 0000000f  00000000  00000000  0009fd11  2**0
                  CONTENTS, READONLY
 29 .quartus_project_dir 0000004c  00000000  00000000  0009fd20  2**0
                  CONTENTS, READONLY
 30 .jdi          00003eda  00000000  00000000  0009fd6c  2**0
                  CONTENTS, READONLY
 31 .sopcinfo     000bbc18  00000000  00000000  000a3c46  2**0
                  CONTENTS, READONLY
SYMBOL TABLE:
04000000 l    d  .entry	00000000 .entry
04000020 l    d  .exceptions	00000000 .exceptions
04000230 l    d  .text	00000000 .text
0402a998 l    d  .rodata	00000000 .rodata
0402c4a8 l    d  .rwdata	00000000 .rwdata
0404b868 l    d  .bss	00000000 .bss
0404b9c8 l    d  .SDRAM	00000000 .SDRAM
08000000 l    d  .VGA_PIXEL_RAM	00000000 .VGA_PIXEL_RAM
00000000 l    d  .comment	00000000 .comment
00000000 l    d  .debug_aranges	00000000 .debug_aranges
00000000 l    d  .debug_info	00000000 .debug_info
00000000 l    d  .debug_abbrev	00000000 .debug_abbrev
00000000 l    d  .debug_line	00000000 .debug_line
00000000 l    d  .debug_frame	00000000 .debug_frame
00000000 l    d  .debug_str	00000000 .debug_str
00000000 l    d  .debug_loc	00000000 .debug_loc
00000000 l    d  .debug_alt_sim_info	00000000 .debug_alt_sim_info
00000000 l    d  .debug_ranges	00000000 .debug_ranges
00000000 l    df *ABS*	00000000 ../PROJECT_MP_bsp//obj/HAL/src/crt0.o
04000268 l       .text	00000000 alt_after_alt_main
00000000 l    df *ABS*	00000000 alt_irq_handler.c
00000000 l    df *ABS*	00000000 alt_instruction_exception_entry.c
00000000 l    df *ABS*	00000000 PROJECTMP.c
00000000 l    df *ABS*	00000000 lib2-divmod.c
00000000 l    df *ABS*	00000000 lib2-mul.c
00000000 l    df *ABS*	00000000 memcpy.c
00000000 l    df *ABS*	00000000 memset.c
00000000 l    df *ABS*	00000000 printf.c
00000000 l    df *ABS*	00000000 puts.c
00000000 l    df *ABS*	00000000 rand.c
00000000 l    df *ABS*	00000000 strlen.c
00000000 l    df *ABS*	00000000 vfprintf.c
0402c1be l     O .rodata	00000010 zeroes.4404
0401b8e4 l     F .text	000000bc __sbprintf
0402c1ce l     O .rodata	00000010 blanks.4403
00000000 l    df *ABS*	00000000 wsetup.c
00000000 l    df *ABS*	00000000 dtoa.c
0401baf4 l     F .text	00000228 quorem
00000000 l    df *ABS*	00000000 fflush.c
00000000 l    df *ABS*	00000000 findfp.c
0401d64c l     F .text	00000008 __fp_unlock
0401d660 l     F .text	0000019c __sinit.part.1
0401d7fc l     F .text	00000008 __fp_lock
00000000 l    df *ABS*	00000000 mallocr.c
00000000 l    df *ABS*	00000000 fvwrite.c
00000000 l    df *ABS*	00000000 fwalk.c
00000000 l    df *ABS*	00000000 impure.c
0403a2a8 l     O .rwdata	00000424 impure_data
00000000 l    df *ABS*	00000000 locale.c
0403a6ec l     O .rwdata	00000020 lc_ctype_charset
0403a6cc l     O .rwdata	00000020 lc_message_charset
0403a70c l     O .rwdata	00000038 lconv
00000000 l    df *ABS*	00000000 makebuf.c
00000000 l    df *ABS*	00000000 mallocr.c
00000000 l    df *ABS*	00000000 memchr.c
00000000 l    df *ABS*	00000000 memmove.c
00000000 l    df *ABS*	00000000 mprec.c
0402c200 l     O .rodata	0000000c p05.2768
00000000 l    df *ABS*	00000000 mallocr.c
00000000 l    df *ABS*	00000000 s_fpclassify.c
00000000 l    df *ABS*	00000000 sbrkr.c
00000000 l    df *ABS*	00000000 stdio.c
00000000 l    df *ABS*	00000000 strcmp.c
00000000 l    df *ABS*	00000000 vfprintf.c
04020a60 l     F .text	000000fc __sprint_r.part.0
0402c324 l     O .rodata	00000010 zeroes.4349
0402209c l     F .text	000000bc __sbprintf
0402c334 l     O .rodata	00000010 blanks.4348
00000000 l    df *ABS*	00000000 writer.c
00000000 l    df *ABS*	00000000 closer.c
00000000 l    df *ABS*	00000000 mallocr.c
00000000 l    df *ABS*	00000000 fclose.c
00000000 l    df *ABS*	00000000 fputwc.c
00000000 l    df *ABS*	00000000 fstatr.c
00000000 l    df *ABS*	00000000 int_errno.c
00000000 l    df *ABS*	00000000 isattyr.c
00000000 l    df *ABS*	00000000 lseekr.c
00000000 l    df *ABS*	00000000 readr.c
00000000 l    df *ABS*	00000000 wbuf.c
00000000 l    df *ABS*	00000000 wcrtomb.c
00000000 l    df *ABS*	00000000 wctomb_r.c
00000000 l    df *ABS*	00000000 libgcc2.c
00000000 l    df *ABS*	00000000 libgcc2.c
00000000 l    df *ABS*	00000000 libgcc2.c
00000000 l    df *ABS*	00000000 adddf3.c
00000000 l    df *ABS*	00000000 divdf3.c
00000000 l    df *ABS*	00000000 eqdf2.c
00000000 l    df *ABS*	00000000 gedf2.c
00000000 l    df *ABS*	00000000 ledf2.c
00000000 l    df *ABS*	00000000 muldf3.c
00000000 l    df *ABS*	00000000 subdf3.c
00000000 l    df *ABS*	00000000 fixdfsi.c
00000000 l    df *ABS*	00000000 floatsidf.c
00000000 l    df *ABS*	00000000 floatunsidf.c
00000000 l    df *ABS*	00000000 libgcc2.c
00000000 l    df *ABS*	00000000 libgcc2.c
00000000 l    df *ABS*	00000000 alt_close.c
04026014 l     F .text	0000003c alt_get_errno
00000000 l    df *ABS*	00000000 alt_dev.c
04026128 l     F .text	0000002c alt_dev_null_write
00000000 l    df *ABS*	00000000 alt_errno.c
00000000 l    df *ABS*	00000000 alt_fstat.c
04026154 l     F .text	0000003c alt_get_errno
00000000 l    df *ABS*	00000000 alt_isatty.c
04026248 l     F .text	0000003c alt_get_errno
00000000 l    df *ABS*	00000000 alt_load.c
04026330 l     F .text	00000068 alt_load_section
00000000 l    df *ABS*	00000000 alt_lseek.c
0402641c l     F .text	0000003c alt_get_errno
00000000 l    df *ABS*	00000000 alt_main.c
00000000 l    df *ABS*	00000000 alt_malloc_lock.c
00000000 l    df *ABS*	00000000 alt_read.c
040265f8 l     F .text	0000003c alt_get_errno
00000000 l    df *ABS*	00000000 alt_release_fd.c
00000000 l    df *ABS*	00000000 alt_sbrk.c
0403be30 l     O .rwdata	00000004 heap_end
00000000 l    df *ABS*	00000000 alt_write.c
0402686c l     F .text	0000003c alt_get_errno
00000000 l    df *ABS*	00000000 alt_sys_init.c
040269a8 l     F .text	00000034 alt_dev_reg
0403acf4 l     O .rwdata	00001060 USB_BLASTER
0403bd54 l     O .rwdata	00000028 altera_hostfs
0403bd7c l     O .rwdata	00000030 altera_ro_zipfs
0403bdac l     O .rwdata	00000054 VGA_PIXEL_DMA
00000000 l    df *ABS*	00000000 altera_avalon_jtag_uart_fd.c
00000000 l    df *ABS*	00000000 altera_avalon_jtag_uart_init.c
04026e88 l     F .text	0000020c altera_avalon_jtag_uart_irq
04027094 l     F .text	000000a0 altera_avalon_jtag_uart_timeout
00000000 l    df *ABS*	00000000 altera_avalon_jtag_uart_ioctl.c
00000000 l    df *ABS*	00000000 altera_avalon_jtag_uart_read.c
00000000 l    df *ABS*	00000000 altera_avalon_jtag_uart_write.c
00000000 l    df *ABS*	00000000 altera_hostfs.c
0403be34 l     O .rwdata	00000009 hcinfo.2538
0403be40 l     O .rwdata	0000000a hcinfo.2551
0403be4c l     O .rwdata	00000009 hcinfo.2560
0403be58 l     O .rwdata	0000000a hcinfo.2573
0403be64 l     O .rwdata	0000000a hcinfo.2586
0403be70 l     O .rwdata	0000000a hcinfo.2612
00000000 l    df *ABS*	00000000 altera_ro_zipfs.c
04027b50 l     F .text	00000074 read_word
04027bc4 l     F .text	00000054 read_word_inc
04027c18 l     F .text	00000044 read_half_word
04027c5c l     F .text	00000054 read_half_word_inc
04027cb0 l     F .text	00000120 check_file_header
04027f04 l     F .text	000000a4 check_directory_table
04027fa8 l     F .text	000000ac find_directory_entry
04028054 l     F .text	00000178 find_file_entry_by_name
040281cc l     F .text	0000019c find_file_entry
00000000 l    df *ABS*	00000000 altera_up_avalon_video_pixel_buffer_dma.c
00000000 l    df *ABS*	00000000 alt_alarm_start.c
00000000 l    df *ABS*	00000000 alt_dcache_flush_all.c
00000000 l    df *ABS*	00000000 alt_dev_llist_insert.c
040297b0 l     F .text	0000003c alt_get_errno
00000000 l    df *ABS*	00000000 alt_do_ctors.c
00000000 l    df *ABS*	00000000 alt_do_dtors.c
00000000 l    df *ABS*	00000000 alt_find_dev.c
00000000 l    df *ABS*	00000000 alt_fs_reg.c
00000000 l    df *ABS*	00000000 alt_icache_flush_all.c
00000000 l    df *ABS*	00000000 alt_iic.c
00000000 l    df *ABS*	00000000 alt_iic_isr_register.c
00000000 l    df *ABS*	00000000 alt_io_redirect.c
04029d20 l     F .text	000000e4 alt_open_fd
00000000 l    df *ABS*	00000000 alt_irq_vars.c
00000000 l    df *ABS*	00000000 alt_open.c
04029e80 l     F .text	0000003c alt_get_errno
04029ebc l     F .text	000000ec alt_file_locked
00000000 l    df *ABS*	00000000 alt_tick.c
00000000 l    df *ABS*	00000000 altera_nios2_gen2_irq.c
00000000 l    df *ABS*	00000000 alt_find_file.c
00000000 l    df *ABS*	00000000 alt_get_fd.c
00000000 l    df *ABS*	00000000 atexit.c
00000000 l    df *ABS*	00000000 exit.c
00000000 l    df *ABS*	00000000 memcmp.c
00000000 l    df *ABS*	00000000 strncmp.c
00000000 l    df *ABS*	00000000 __atexit.c
00000000 l    df *ABS*	00000000 __call_atexit.c
00000000 l    df *ABS*	00000000 alt_exit.c
0404b89c g     O .bss	00000004 alt_instruction_exception_handler
040200a4 g     F .text	00000074 _mprec_log10
04020190 g     F .text	0000008c __any_on
04022650 g     F .text	00000054 _isatty_r
0402c20c g     O .rodata	00000028 __mprec_tinytens
040312a8 g     O .rwdata	00000600 D
04026534 g     F .text	0000007c alt_main
04034ea8 g     O .rwdata	00000600 N
04029028 g     F .text	0000026c alt_up_pixel_buffer_dma_draw_vline
04019404 g     F .text	000000c0 _puts_r
0404b8c8 g     O .bss	00000100 alt_irq
040226a4 g     F .text	00000060 _lseek_r
0403be88 g       *ABS*	00000000 __flash_rwdata_start
040249ec g     F .text	00000088 .hidden __eqdf2
0404b9c8 g       *ABS*	00000000 __alt_heap_start
040193c8 g     F .text	0000003c printf
040228bc g     F .text	0000009c _wcrtomb_r
04020920 g     F .text	0000005c __sseek
0401d9ac g     F .text	00000010 __sinit
04022764 g     F .text	00000140 __swbuf_r
0401e480 g     F .text	0000007c _setlocale_r
0401d804 g     F .text	00000078 __sfmoreglue
040265d4 g     F .text	00000024 __malloc_unlock
040276cc g     F .text	0000011c alt_hostfs_open
0401f008 g     F .text	0000015c memmove
0401d994 g     F .text	00000018 _cleanup
0402d0a8 g     O .rwdata	00000600 two
0401f164 g     F .text	000000a8 _Balloc
04028728 g     F .text	000001a8 alt_up_pixel_buffer_dma_draw
04024a74 g     F .text	000000dc .hidden __gtdf2
0402a2a8 g     F .text	00000024 altera_nios2_gen2_irq_init
040286ec g     F .text	0000003c alt_up_pixel_buffer_dma_open_dev
04000000 g     F .entry	0000000c __reset
04000020 g       *ABS*	00000000 __flash_exceptions_start
040225f4 g     F .text	0000005c _fstat_r
0404b880 g     O .bss	00000004 errno
0402089c g     F .text	00000008 __seofread
0404b888 g     O .bss	00000004 alt_argv
04043e00 g       *ABS*	00000000 _gp
040288d0 g     F .text	0000005c alt_up_pixel_buffer_dma_change_back_buffer_address
0403ab74 g     O .rwdata	00000180 alt_fd_list
04027904 g     F .text	00000068 alt_hostfs_seek
04029950 g     F .text	00000090 alt_find_dev
040300a8 g     O .rwdata	00000600 A
04019128 g     F .text	00000148 memcpy
04033ca8 g     O .rwdata	00000600 K
0401d654 g     F .text	0000000c _cleanup_r
04025e2c g     F .text	000000dc .hidden __floatsidf
040299e0 g     F .text	00000080 alt_fs_reg
04029e04 g     F .text	0000007c alt_io_redirect
04024b50 g     F .text	000000f4 .hidden __ltdf2
0402a998 g       *ABS*	00000000 __DTOR_END__
040194c4 g     F .text	00000014 puts
0402a498 g     F .text	0000009c alt_exception_cause_generated_bad_addr
04028368 g     F .text	00000090 alt_ro_zipfs_open
04020780 g     F .text	00000074 __fpclassifyd
04020000 g     F .text	000000a4 __ratio
04022080 g     F .text	0000001c __vfiprintf_internal
0402898c g     F .text	00000034 alt_up_pixel_buffer_dma_check_swap_buffers_status
0402728c g     F .text	0000021c altera_avalon_jtag_uart_read
04019398 g     F .text	00000030 _printf_r
04019044 g     F .text	00000064 .hidden __udivsi3
04026284 g     F .text	000000ac isatty
0402c25c g     O .rodata	000000c8 __mprec_tens
040360a8 g     O .rwdata	00000600 Q
04028df8 g     F .text	00000230 alt_up_pixel_buffer_dma_draw_hline
0401e4fc g     F .text	0000000c __locale_charset
0404b87c g     O .bss	00000004 __malloc_top_pad
0403be08 g     O .rwdata	00000004 __mb_cur_max
0401e52c g     F .text	0000000c _localeconv_r
0401f598 g     F .text	0000003c __i2b
0401de30 g     F .text	000004c8 __sfvwrite_r
040207f4 g     F .text	00000054 _sbrk_r
0402935c g     F .text	000000c0 helper_plot_pixel
0402782c g     F .text	0000006c alt_hostfs_read
04022704 g     F .text	00000060 _read_r
0403be28 g     O .rwdata	00000004 alt_max_fd
040222e8 g     F .text	000000f0 _fclose_r
04039ca8 g     O .rwdata	00000600 square
0401d61c g     F .text	00000030 fflush
0404b878 g     O .bss	00000004 __malloc_max_sbrked_mem
040390a8 g     O .rwdata	00000600 Y
04023770 g     F .text	000008ac .hidden __adddf3
0401fda8 g     F .text	0000010c __b2d
040289c0 g     F .text	0000013c alt_up_pixel_buffer_dma_clear_screen
040231ac g     F .text	000005c4 .hidden __umoddi3
04026458 g     F .text	000000dc lseek
0403be00 g     O .rwdata	00000004 _global_impure_ptr
0402021c g     F .text	00000564 _realloc_r
0404b9c8 g       *ABS*	00000000 __bss_end
04029c30 g     F .text	000000f0 alt_iic_isr_register
04028afc g     F .text	000002fc alt_up_pixel_buffer_dma_draw_box
0402a1a0 g     F .text	00000108 alt_tick
04022bb0 g     F .text	000005fc .hidden __udivdi3
04022550 g     F .text	00000024 _fputwc_r
0402c234 g     O .rodata	00000028 __mprec_bigtens
0401f37c g     F .text	00000104 __s2b
04025f08 g     F .text	000000a8 .hidden __floatunsidf
0401fae8 g     F .text	00000060 __mcmp
0401d9cc g     F .text	00000018 __fp_lock_all
040372a8 g     O .rwdata	00000600 T
04029be4 g     F .text	0000004c alt_ic_irq_enabled
04036ca8 g     O .rwdata	00000600 S
0400026c g     F .text	00000048 Delay_Loading
0402a104 g     F .text	0000009c alt_alarm_stop
0402faa8 g     O .rwdata	00000600 nine
0404b890 g     O .bss	00000004 alt_irq_active
040284e0 g     F .text	0000013c alt_ro_zipfs_seek
040277e8 g     F .text	00000044 alt_hostfs_close
040000fc g     F .exceptions	000000d4 alt_irq_handler
0403ab4c g     O .rwdata	00000028 alt_dev_null
04029790 g     F .text	00000020 alt_dcache_flush_all
0401f480 g     F .text	00000068 __hi0bits
04029294 g     F .text	000000c8 alt_up_pixel_buffer_dma_draw_rectangle
040306a8 g     O .rwdata	00000600 B
04025dac g     F .text	00000080 .hidden __fixdfsi
0403be88 g       *ABS*	00000000 __ram_rwdata_end
0403be20 g     O .rwdata	00000008 alt_dev_list
040268a8 g     F .text	00000100 write
040336a8 g     O .rwdata	00000600 J
0402941c g     F .text	00000248 alt_up_pixel_buffer_dma_draw_line
0402c4a8 g       *ABS*	00000000 __ram_rodata_end
04026190 g     F .text	000000b8 fstat
04000000 g       *ABS*	00000000 __alt_mem_SDRAM
04024b50 g     F .text	000000f4 .hidden __ledf2
0401f860 g     F .text	00000140 __pow5mult
04020b74 g     F .text	0000150c ___vfiprintf_internal_r
0404b870 g     O .bss	00000004 __nlocale_changed
040190a8 g     F .text	00000058 .hidden __umodsi3
040002fc g     F .text	00000048 Delay_Medium
0404b9c8 g       *ABS*	00000000 end
04030ca8 g     O .rwdata	00000600 C
04037ea8 g     O .rwdata	00000600 V
04026dc8 g     F .text	000000c0 altera_avalon_jtag_uart_init
040001d0 g     F .exceptions	00000060 alt_instruction_exception_entry
0402a998 g       *ABS*	00000000 __CTOR_LIST__
08000000 g       *ABS*	00000000 __alt_stack_pointer
04025fb0 g     F .text	00000064 .hidden __clzsi2
040274a8 g     F .text	00000224 altera_avalon_jtag_uart_write
0401d9bc g     F .text	00000004 __sfp_lock_acquire
0401ef24 g     F .text	000000e4 memchr
040195ec g     F .text	000022dc ___vfprintf_internal_r
0401db20 g     F .text	00000310 _free_r
0401e508 g     F .text	00000010 __locale_mb_cur_max
0402a7e4 g     F .text	00000180 __call_exitprocs
0404b86c g     O .bss	00000004 __mlocale_changed
0403be0c g     O .rwdata	00000004 __malloc_sbrk_base
04000230 g     F .text	0000003c _start
0404b894 g     O .bss	00000004 _alt_tick_rate
040194f0 g     F .text	00000064 rand
0401f9a0 g     F .text	00000148 __lshift
0404b898 g     O .bss	00000004 _alt_nticks
04026634 g     F .text	00000104 read
04026a14 g     F .text	00000250 alt_sys_init
0402a6cc g     F .text	00000118 __register_exitproc
0402a5fc g     F .text	000000d0 strncmp
0401f5d4 g     F .text	0000028c __multiply
04027134 g     F .text	00000068 altera_avalon_jtag_uart_close
04019100 g     F .text	00000028 .hidden __mulsi3
0402c4a8 g       *ABS*	00000000 __ram_rwdata_start
0402a998 g       *ABS*	00000000 __ram_rodata_start
0404b8a0 g     O .bss	00000028 __malloc_current_mallinfo
0401feb4 g     F .text	0000014c __d2b
040324a8 g     O .rwdata	00000600 G
04026c64 g     F .text	00000060 altera_avalon_jtag_uart_read_fd
0402a3d4 g     F .text	000000c4 alt_get_fd
0402eea8 g     O .rwdata	00000600 seven
040221b8 g     F .text	00000054 _close_r
040354a8 g     O .rwdata	00000600 O
0402a580 g     F .text	0000007c memcmp
04026d24 g     F .text	00000050 altera_avalon_jtag_uart_close_fd
0404b9c8 g       *ABS*	00000000 __alt_stack_base
04026d74 g     F .text	00000054 altera_avalon_jtag_uart_ioctl_fd
0401b9a0 g     F .text	00000154 __swsetup_r
0402401c g     F .text	000009d0 .hidden __divdf3
0401d87c g     F .text	00000118 __sfp
040384a8 g     O .rwdata	00000600 W
04020118 g     F .text	00000078 __copybits
0403a744 g     O .rwdata	00000408 __malloc_av_
0401d9c8 g     F .text	00000004 __sinit_lock_release
04024c44 g     F .text	0000086c .hidden __muldf3
04020848 g     F .text	00000054 __sread
0402a2cc g     F .text	00000108 alt_find_file
040297ec g     F .text	000000a4 alt_dev_llist_insert
040265b0 g     F .text	00000024 __malloc_lock
040267bc g     F .text	000000b0 sbrk
04000344 g     F .text	00000044 Delay_Short
0401d5c0 g     F .text	0000005c _fflush_r
0402220c g     F .text	000000dc _calloc_r
0404b868 g       *ABS*	00000000 __bss_start
04019270 g     F .text	00000128 memset
040005d4 g     F .text	00018978 main
0404b88c g     O .bss	00000004 alt_envp
0404b874 g     O .bss	00000004 __malloc_max_total_mem
0402892c g     F .text	00000060 alt_up_pixel_buffer_dma_swap_buffers
04026cc4 g     F .text	00000060 altera_avalon_jtag_uart_write_fd
040228a4 g     F .text	00000018 __swbuf
040194d8 g     F .text	00000018 srand
0402e8a8 g     O .rwdata	00000600 six
0402097c g     F .text	00000008 __sclose
08000000 g       *ABS*	00000000 __alt_heap_limit
040223d8 g     F .text	00000014 fclose
04032aa8 g     O .rwdata	00000600 H
0401bd1c g     F .text	00001688 _dtoa_r
0401e718 g     F .text	0000080c _malloc_r
04022a18 g     F .text	00000030 __ascii_wctomb
0403be2c g     O .rwdata	00000004 alt_errno
040002b4 g     F .text	00000048 Delay_Long
0401e2f8 g     F .text	000000c4 _fwalk
040004cc g     F .text	00000108 draw1
04018f4c g     F .text	00000084 .hidden __divsi3
040283f8 g     F .text	000000e8 alt_ro_zipfs_read
0401d9fc g     F .text	00000124 _malloc_trim_r
0402a998 g       *ABS*	00000000 __CTOR_END__
040342a8 g     O .rwdata	00000600 L
04028694 g     F .text	00000058 alt_ro_zipfs_check_valid
04020984 g     F .text	000000dc strcmp
0402a998 g       *ABS*	00000000 __flash_rodata_start
0402a998 g       *ABS*	00000000 __DTOR_LIST__
040249ec g     F .text	00000088 .hidden __nedf2
0402861c g     F .text	00000078 alt_ro_zipfs_fstat
040269dc g     F .text	00000038 alt_irq_init
04026738 g     F .text	00000084 alt_release_fd
0402c344 g     O .rodata	00000100 .hidden __clz_tab
0404b868 g     O .bss	00000004 _PathLocale
040366a8 g     O .rwdata	00000600 R
0402a534 g     F .text	00000014 atexit
0402c4a8 g     O .rwdata	00000600 zero
04022158 g     F .text	00000060 _write_r
0401e538 g     F .text	00000018 setlocale
0403be04 g     O .rwdata	00000004 _impure_ptr
0404b884 g     O .bss	00000004 alt_argc
040396a8 g     O .rwdata	00000600 Z
0401d3a4 g     F .text	0000021c __sflush_r
040298f0 g     F .text	00000060 _do_dtors
0401e524 g     F .text	00000008 __locale_cjk_lang
0402caa8 g     O .rwdata	00000600 one
04000020 g       .exceptions	00000000 alt_irq_entry
0401fd44 g     F .text	00000064 __ulp
0401d9e4 g     F .text	00000018 __fp_unlock_all
0403be18 g     O .rwdata	00000008 alt_fs_list
04027898 g     F .text	0000006c alt_hostfs_write
040318a8 g     O .rwdata	00000600 E
040330a8 g     O .rwdata	00000600 I
04000020 g       *ABS*	00000000 __ram_exceptions_start
0401e550 g     F .text	0000000c localeconv
04000388 g     F .text	00000040 Delay_Pulse
040348a8 g     O .rwdata	00000600 M
04029a80 g     F .text	00000050 alt_ic_isr_register
0403be88 g       *ABS*	00000000 _edata
0404b9c8 g       *ABS*	00000000 _end
040223ec g     F .text	00000164 __fputwc
04000230 g       *ABS*	00000000 __ram_exceptions_end
0402719c g     F .text	000000f0 altera_avalon_jtag_uart_ioctl
040378a8 g     O .rwdata	00000600 U
04029b58 g     F .text	0000008c alt_ic_irq_disable
040208a4 g     F .text	0000007c __swrite
0403be10 g     O .rwdata	00000004 __malloc_trim_threshold
0401e518 g     F .text	0000000c __locale_msgcharset
0402a548 g     F .text	00000038 exit
0401e3bc g     F .text	000000c4 _fwalk_reent
0401fb48 g     F .text	000001fc __mdiff
04018fd0 g     F .text	00000074 .hidden __modsi3
08000000 g       *ABS*	00000000 __alt_data_end
04000020 g     F .exceptions	00000000 alt_exception
0401d9c0 g     F .text	00000004 __sfp_lock_release
040003c8 g     F .text	00000104 draw
0402f4a8 g     O .rwdata	00000600 eight
0402a964 g     F .text	00000034 _exit
04029664 g     F .text	0000012c alt_alarm_start
04022aa4 g     F .text	0000010c .hidden __muldi3
0401e55c g     F .text	000001bc __smakebuf_r
08000000 g       *ABS*	00000000 __alt_mem_VGA_PIXEL_RAM
04019554 g     F .text	00000098 strlen
04029fa8 g     F .text	0000015c open
04024a74 g     F .text	000000dc .hidden __gedf2
0402d6a8 g     O .rwdata	00000600 three
0403be14 g     O .rwdata	00000004 __wctomb
0402e2a8 g     O .rwdata	00000600 five
04020b5c g     F .text	00000018 __sprint_r
04029a60 g     F .text	00000020 alt_icache_flush_all
0403be7c g     O .rwdata	00000004 alt_priority_mask
04029ad0 g     F .text	00000088 alt_ic_irq_enable
0401b8c8 g     F .text	0000001c __vfprintf_internal
04022a48 g     F .text	0000005c _wctomb_r
040254b0 g     F .text	000008fc .hidden __subdf3
0401f4e8 g     F .text	000000b0 __lo0bits
0403be80 g     O .rwdata	00000008 alt_alarm_list
0402dca8 g     O .rwdata	00000600 four
04029890 g     F .text	00000060 _do_ctors
04031ea8 g     O .rwdata	00000600 F
04035aa8 g     O .rwdata	00000600 P
04022958 g     F .text	000000c0 wcrtomb
04026050 g     F .text	000000d8 close
04026398 g     F .text	00000084 alt_load
04022574 g     F .text	00000080 fputwc
04038aa8 g     O .rwdata	00000600 X
0401d9c4 g     F .text	00000004 __sinit_lock_acquire
0401f234 g     F .text	00000148 __multadd
0401f20c g     F .text	00000028 _Bfree
0402796c g     F .text	000001e4 alt_hostfs_fstat
04027dd0 g     F .text	00000134 check_directory_header



Disassembly of section .entry:

04000000 <__reset>:
 * Jump to the _start entry point in the .text section if reset code
 * is allowed or if optimizing for RTL simulation.
 */
#if defined(ALT_ALLOW_CODE_AT_RESET) || defined(ALT_SIM_OPTIMIZE)
    /* Jump to the _start entry point in the .text section. */
    movhi r1, %hi(_start)
 4000000:	00410034 	movhi	at,1024
    ori r1, r1, %lo(_start)
 4000004:	08408c14 	ori	at,at,560
    jmp r1
 4000008:	0800683a 	jmp	at
	...

Disassembly of section .exceptions:

04000020 <alt_exception>:

#else /* ALT_EXCEPTION_STACK disabled */
        /* 
         * Reserve space on normal stack for registers about to be pushed.
         */
        addi  sp, sp, -76
 4000020:	deffed04 	addi	sp,sp,-76
         * documentation for details).
         *
         * Leave a gap in the stack frame at 4(sp) for the muldiv handler to
         * store zero into.
         */
        stw   ra,  0(sp)
 4000024:	dfc00015 	stw	ra,0(sp)
        stw   r1,   8(sp)
 4000028:	d8400215 	stw	at,8(sp)
        stw   r2,  12(sp)
 400002c:	d8800315 	stw	r2,12(sp)
        stw   r3,  16(sp)
 4000030:	d8c00415 	stw	r3,16(sp)
        stw   r4,  20(sp)
 4000034:	d9000515 	stw	r4,20(sp)
        stw   r5,  24(sp)
 4000038:	d9400615 	stw	r5,24(sp)
        stw   r6,  28(sp)
 400003c:	d9800715 	stw	r6,28(sp)
        stw   r7,  32(sp)
 4000040:	d9c00815 	stw	r7,32(sp)
        rdctl r5, estatus   /* Read early to avoid usage stall */
 4000044:	000b307a 	rdctl	r5,estatus
        stw   r8,  36(sp)
 4000048:	da000915 	stw	r8,36(sp)
        stw   r9,  40(sp)
 400004c:	da400a15 	stw	r9,40(sp)
        stw   r10, 44(sp)
 4000050:	da800b15 	stw	r10,44(sp)
        stw   r11, 48(sp)
 4000054:	dac00c15 	stw	r11,48(sp)
        stw   r12, 52(sp)
 4000058:	db000d15 	stw	r12,52(sp)
        stw   r13, 56(sp)
 400005c:	db400e15 	stw	r13,56(sp)
        stw   r14, 60(sp)
 4000060:	db800f15 	stw	r14,60(sp)
        stw   r15, 64(sp)
 4000064:	dbc01015 	stw	r15,64(sp)
        /*
         * ea-4 contains the address of the instruction being executed
         * when the exception occured. For interrupt exceptions, we will
         * will be re-issue the isntruction. Store it in 72(sp)
         */
        stw   r5,  68(sp)  /* estatus */
 4000068:	d9401115 	stw	r5,68(sp)
        addi  r15, ea, -4  /* instruction that caused exception */
 400006c:	ebffff04 	addi	r15,ea,-4
        stw   r15,  72(sp)
 4000070:	dbc01215 	stw	r15,72(sp)
#else
        /*
         * Test to see if the exception was a software exception or caused 
         * by an external interrupt, and vector accordingly.
         */
        rdctl r4, ipending
 4000074:	0009313a 	rdctl	r4,ipending
        andi  r2, r5, 1
 4000078:	2880004c 	andi	r2,r5,1
        beq   r2, zero, .Lnot_irq
 400007c:	10000326 	beq	r2,zero,400008c <alt_exception+0x6c>
        beq   r4, zero, .Lnot_irq
 4000080:	20000226 	beq	r4,zero,400008c <alt_exception+0x6c>
        /*
         * Now that all necessary registers have been preserved, call 
         * alt_irq_handler() to process the interrupts.
         */

        call alt_irq_handler
 4000084:	40000fc0 	call	40000fc <alt_irq_handler>

        .section .exceptions.irqreturn, "xa"

        br    .Lexception_exit
 4000088:	00000706 	br	40000a8 <alt_exception+0x88>
         * upon completion, so we write ea (address of instruction *after*
         * the one where the exception occured) into 72(sp). The actual
         * instruction that caused the exception is written in r2, which these
         * handlers will utilize.
         */
        stw ea, 72(sp) /* EA is PC+4 so will skip over instruction causing exception */
 400008c:	df401215 	stw	ea,72(sp)
.Lunknown_16bit:
        addi.n r4, r4, 2 /* Need PC+2 to skip over instruction causing exception */
        stw r4, 72(sp)

#else /* CDX is not Enabled and all instructions are 32bits */
        ldw r2, -4(ea) /* Instruction value that caused exception */
 4000090:	e8bfff17 	ldw	r2,-4(ea)
         * debugger is present) or go into an infinite loop since the
         * handling behavior is undefined; in that case we will not return here.
         */

        /* Load exception-causing address as first argument (r4) */
        addi   r4, ea, -4
 4000094:	e93fff04 	addi	r4,ea,-4

        /* Call the instruction-exception entry */
        call   alt_instruction_exception_entry
 4000098:	40001d00 	call	40001d0 <alt_instruction_exception_entry>
         * instruction
         *
         * Return code was 0: Skip. The instruction after the exception is
         * already stored in 72(sp).
         */
        bne   r2, r0, .Lexception_exit
 400009c:	1000021e 	bne	r2,zero,40000a8 <alt_exception+0x88>

        /*
         * Otherwise, modify 72(sp) to re-issue the instruction that caused the
         * exception.
         */
        addi  r15, ea, -4  /* instruction that caused exception */
 40000a0:	ebffff04 	addi	r15,ea,-4
        stw   r15,  72(sp)
 40000a4:	dbc01215 	stw	r15,72(sp)
        /* 
         * Restore the saved registers, so that all general purpose registers 
         * have been restored to their state at the time the interrupt occured.
         */

        ldw   r5,  68(sp)
 40000a8:	d9401117 	ldw	r5,68(sp)
        ldw   ea,  72(sp)  /* This becomes the PC once eret is executed */
 40000ac:	df401217 	ldw	ea,72(sp)
        ldw   ra,   0(sp)
 40000b0:	dfc00017 	ldw	ra,0(sp)

        wrctl estatus, r5
 40000b4:	2801707a 	wrctl	estatus,r5

        ldw   r1,   8(sp)
 40000b8:	d8400217 	ldw	at,8(sp)
        ldw   r2,  12(sp)
 40000bc:	d8800317 	ldw	r2,12(sp)
        ldw   r3,  16(sp)
 40000c0:	d8c00417 	ldw	r3,16(sp)
        ldw   r4,  20(sp)
 40000c4:	d9000517 	ldw	r4,20(sp)
        ldw   r5,  24(sp)
 40000c8:	d9400617 	ldw	r5,24(sp)
        ldw   r6,  28(sp)
 40000cc:	d9800717 	ldw	r6,28(sp)
        ldw   r7,  32(sp)
 40000d0:	d9c00817 	ldw	r7,32(sp)

#if defined(ALT_EXCEPTION_STACK) && defined(ALT_STACK_CHECK)
        ldw   et, %gprel(alt_exception_old_stack_limit)(gp)
#endif

        ldw   r8,  36(sp)
 40000d4:	da000917 	ldw	r8,36(sp)
        ldw   r9,  40(sp)
 40000d8:	da400a17 	ldw	r9,40(sp)
        ldw   r10, 44(sp)
 40000dc:	da800b17 	ldw	r10,44(sp)
        ldw   r11, 48(sp)
 40000e0:	dac00c17 	ldw	r11,48(sp)
        ldw   r12, 52(sp)
 40000e4:	db000d17 	ldw	r12,52(sp)
        ldw   r13, 56(sp)
 40000e8:	db400e17 	ldw	r13,56(sp)
        ldw   r14, 60(sp)
 40000ec:	db800f17 	ldw	r14,60(sp)
        ldw   r15, 64(sp)
 40000f0:	dbc01017 	ldw	r15,64(sp)
        stw   et, %gprel(alt_stack_limit_value)(gp)
        stw   zero, %gprel(alt_exception_old_stack_limit)(gp)
#endif /* ALT_STACK_CHECK */
        ldw   sp,  76(sp)
#else /* ALT_EXCEPTION_STACK disabled */
        addi  sp, sp, 76
 40000f4:	dec01304 	addi	sp,sp,76

        /*
         * Return to the interrupted instruction.
         */

        eret
 40000f8:	ef80083a 	eret

040000fc <alt_irq_handler>:
 * instruction is present if the macro ALT_CI_INTERRUPT_VECTOR defined.
 */

void alt_irq_handler (void) __attribute__ ((section (".exceptions")));
void alt_irq_handler (void)
{
 40000fc:	defff904 	addi	sp,sp,-28
 4000100:	dfc00615 	stw	ra,24(sp)
 4000104:	df000515 	stw	fp,20(sp)
 4000108:	df000504 	addi	fp,sp,20
  
  /*
   * Notify the operating system that we are at interrupt level.
   */ 
  
  ALT_OS_INT_ENTER();
 400010c:	0001883a 	nop
#ifndef NIOS2_EIC_PRESENT
static ALT_INLINE alt_u32 ALT_ALWAYS_INLINE alt_irq_pending (void)
{
  alt_u32 active;

  NIOS2_READ_IPENDING (active);
 4000110:	0005313a 	rdctl	r2,ipending
 4000114:	e0bffe15 	stw	r2,-8(fp)

  return active;
 4000118:	e0bffe17 	ldw	r2,-8(fp)
   * Consider the case where the high priority interupt is asserted during
   * the interrupt entry sequence for a lower priority interrupt to see why
   * this is the case.
   */

  active = alt_irq_pending ();
 400011c:	e0bffb15 	stw	r2,-20(fp)

  do
  {
    i = 0;
 4000120:	e03ffd15 	stw	zero,-12(fp)
    mask = 1;
 4000124:	00800044 	movi	r2,1
 4000128:	e0bffc15 	stw	r2,-16(fp)
     * called to clear the interrupt condition.
     */

    do
    {
      if (active & mask)
 400012c:	e0fffb17 	ldw	r3,-20(fp)
 4000130:	e0bffc17 	ldw	r2,-16(fp)
 4000134:	1884703a 	and	r2,r3,r2
 4000138:	10001426 	beq	r2,zero,400018c <alt_irq_handler+0x90>
      { 
#ifdef ALT_ENHANCED_INTERRUPT_API_PRESENT
        alt_irq[i].handler(alt_irq[i].context); 
 400013c:	00810174 	movhi	r2,1029
 4000140:	10ae3204 	addi	r2,r2,-18232
 4000144:	e0fffd17 	ldw	r3,-12(fp)
 4000148:	180690fa 	slli	r3,r3,3
 400014c:	10c5883a 	add	r2,r2,r3
 4000150:	10c00017 	ldw	r3,0(r2)
 4000154:	00810174 	movhi	r2,1029
 4000158:	10ae3204 	addi	r2,r2,-18232
 400015c:	e13ffd17 	ldw	r4,-12(fp)
 4000160:	200890fa 	slli	r4,r4,3
 4000164:	1105883a 	add	r2,r2,r4
 4000168:	10800104 	addi	r2,r2,4
 400016c:	10800017 	ldw	r2,0(r2)
 4000170:	1009883a 	mov	r4,r2
 4000174:	183ee83a 	callr	r3
#else
        alt_irq[i].handler(alt_irq[i].context, i); 
#endif
        break;
 4000178:	0001883a 	nop
#ifndef NIOS2_EIC_PRESENT
static ALT_INLINE alt_u32 ALT_ALWAYS_INLINE alt_irq_pending (void)
{
  alt_u32 active;

  NIOS2_READ_IPENDING (active);
 400017c:	0005313a 	rdctl	r2,ipending
 4000180:	e0bfff15 	stw	r2,-4(fp)

  return active;
 4000184:	e0bfff17 	ldw	r2,-4(fp)
 4000188:	00000706 	br	40001a8 <alt_irq_handler+0xac>
      }
      mask <<= 1;
 400018c:	e0bffc17 	ldw	r2,-16(fp)
 4000190:	1085883a 	add	r2,r2,r2
 4000194:	e0bffc15 	stw	r2,-16(fp)
      i++;
 4000198:	e0bffd17 	ldw	r2,-12(fp)
 400019c:	10800044 	addi	r2,r2,1
 40001a0:	e0bffd15 	stw	r2,-12(fp)

    } while (1);
 40001a4:	003fe106 	br	400012c <__alt_data_end+0xfc00012c>

    active = alt_irq_pending ();
 40001a8:	e0bffb15 	stw	r2,-20(fp)
    
  } while (active);
 40001ac:	e0bffb17 	ldw	r2,-20(fp)
 40001b0:	103fdb1e 	bne	r2,zero,4000120 <__alt_data_end+0xfc000120>

  /*
   * Notify the operating system that interrupt processing is complete.
   */ 

  ALT_OS_INT_EXIT();
 40001b4:	0001883a 	nop
}
 40001b8:	0001883a 	nop
 40001bc:	e037883a 	mov	sp,fp
 40001c0:	dfc00117 	ldw	ra,4(sp)
 40001c4:	df000017 	ldw	fp,0(sp)
 40001c8:	dec00204 	addi	sp,sp,8
 40001cc:	f800283a 	ret

040001d0 <alt_instruction_exception_entry>:
 * that handler if it has been registered. Absent a handler, it will
 * break break or hang as discussed below.
 */
int 
alt_instruction_exception_entry (alt_u32 exception_pc)
{
 40001d0:	defffb04 	addi	sp,sp,-20
 40001d4:	dfc00415 	stw	ra,16(sp)
 40001d8:	df000315 	stw	fp,12(sp)
 40001dc:	df000304 	addi	fp,sp,12
 40001e0:	e13fff15 	stw	r4,-4(fp)
  cause = ( (cause & NIOS2_EXCEPTION_REG_CAUSE_MASK) >>
              NIOS2_EXCEPTION_REG_CAUSE_OFST );

  NIOS2_READ_BADADDR(badaddr);
#else
  cause = NIOS2_EXCEPTION_CAUSE_NOT_PRESENT;
 40001e4:	00bfffc4 	movi	r2,-1
 40001e8:	e0bffd15 	stw	r2,-12(fp)
  badaddr = 0;
 40001ec:	e03ffe15 	stw	zero,-8(fp)
#endif /* NIOS2_HAS_EXTRA_EXCEPTION_INFO */

  if(alt_instruction_exception_handler) {
 40001f0:	d09ea717 	ldw	r2,31388(gp)
 40001f4:	10000726 	beq	r2,zero,4000214 <alt_instruction_exception_entry+0x44>
     * Call handler. Its return value indicates whether the exception-causing
     * instruction should be re-issued. The code that called us,
     * alt_eceptions_entry.S, will look at this value and adjust the ea
     * register as necessary
     */
    return alt_instruction_exception_handler(cause, exception_pc, badaddr);
 40001f8:	d09ea717 	ldw	r2,31388(gp)
 40001fc:	e0fffd17 	ldw	r3,-12(fp)
 4000200:	e1bffe17 	ldw	r6,-8(fp)
 4000204:	e17fff17 	ldw	r5,-4(fp)
 4000208:	1809883a 	mov	r4,r3
 400020c:	103ee83a 	callr	r2
 4000210:	00000206 	br	400021c <alt_instruction_exception_entry+0x4c>
   *    (a peripheral which negates its interrupt output before its
   *    interrupt handler has been executed will cause spurious interrupts)
   */
  else {
#ifdef NIOS2_HAS_DEBUG_STUB
    NIOS2_BREAK();
 4000214:	003da03a 	break	0
      ;
#endif /* NIOS2_HAS_DEBUG_STUB */
  }

  /* We should not get here. Remove compiler warning. */
  return NIOS2_EXCEPTION_RETURN_REISSUE_INST;
 4000218:	0005883a 	mov	r2,zero
}
 400021c:	e037883a 	mov	sp,fp
 4000220:	dfc00117 	ldw	ra,4(sp)
 4000224:	df000017 	ldw	fp,0(sp)
 4000228:	dec00204 	addi	sp,sp,8
 400022c:	f800283a 	ret

Disassembly of section .text:

04000230 <_start>:

    /*
     * Now that the caches are initialized, set up the stack pointer and global pointer.
     * The values provided by the linker are assumed to be correctly aligned.
     */
    movhi sp, %hi(__alt_stack_pointer)
 4000230:	06c20034 	movhi	sp,2048
    ori sp, sp, %lo(__alt_stack_pointer)
 4000234:	dec00014 	ori	sp,sp,0
    movhi gp, %hi(_gp)
 4000238:	06810134 	movhi	gp,1028
    ori gp, gp, %lo(_gp)
 400023c:	d68f8014 	ori	gp,gp,15872
 */
#ifndef ALT_SIM_OPTIMIZE
    /* Log that the BSS is about to be cleared. */
    ALT_LOG_PUTS(alt_log_msg_bss)

    movhi r2, %hi(__bss_start)
 4000240:	00810134 	movhi	r2,1028
    ori r2, r2, %lo(__bss_start)
 4000244:	10ae1a14 	ori	r2,r2,47208

    movhi r3, %hi(__bss_end)
 4000248:	00c10134 	movhi	r3,1028
    ori r3, r3, %lo(__bss_end)
 400024c:	18ee7214 	ori	r3,r3,47560

    beq r2, r3, 1f
 4000250:	10c00326 	beq	r2,r3,4000260 <_start+0x30>

0:
    stw zero, (r2)
 4000254:	10000015 	stw	zero,0(r2)
    addi r2, r2, 4
 4000258:	10800104 	addi	r2,r2,4
    bltu r2, r3, 0b
 400025c:	10fffd36 	bltu	r2,r3,4000254 <__alt_data_end+0xfc000254>
     * section aren't defined until alt_load() has been called).
     */
    mov   et, zero
#endif

    call alt_load
 4000260:	40263980 	call	4026398 <alt_load>

    /* Log that alt_main is about to be called. */
    ALT_LOG_PUTS(alt_log_msg_alt_main)

    /* Call the C entry point. It should never return. */
    call alt_main
 4000264:	40265340 	call	4026534 <alt_main>

04000268 <alt_after_alt_main>:

    /* Wait in infinite loop in case alt_main does return. */
alt_after_alt_main:
    br alt_after_alt_main
 4000268:	003fff06 	br	4000268 <__alt_data_end+0xfc000268>

0400026c <Delay_Loading>:
#include "COLOR_08.h"
#include "letters.h"



void Delay_Loading () {int d = 0; for (d = 0; d <  5000000; d++);}
 400026c:	defffe04 	addi	sp,sp,-8
 4000270:	df000115 	stw	fp,4(sp)
 4000274:	df000104 	addi	fp,sp,4
 4000278:	e03fff15 	stw	zero,-4(fp)
 400027c:	e03fff15 	stw	zero,-4(fp)
 4000280:	00000306 	br	4000290 <Delay_Loading+0x24>
 4000284:	e0bfff17 	ldw	r2,-4(fp)
 4000288:	10800044 	addi	r2,r2,1
 400028c:	e0bfff15 	stw	r2,-4(fp)
 4000290:	e0ffff17 	ldw	r3,-4(fp)
 4000294:	00801334 	movhi	r2,76
 4000298:	1092cfc4 	addi	r2,r2,19263
 400029c:	10fff90e 	bge	r2,r3,4000284 <__alt_data_end+0xfc000284>
 40002a0:	0001883a 	nop
 40002a4:	e037883a 	mov	sp,fp
 40002a8:	df000017 	ldw	fp,0(sp)
 40002ac:	dec00104 	addi	sp,sp,4
 40002b0:	f800283a 	ret

040002b4 <Delay_Long>:
void Delay_Long    () {int d = 0; for (d = 0; d <   500000; d++);}
 40002b4:	defffe04 	addi	sp,sp,-8
 40002b8:	df000115 	stw	fp,4(sp)
 40002bc:	df000104 	addi	fp,sp,4
 40002c0:	e03fff15 	stw	zero,-4(fp)
 40002c4:	e03fff15 	stw	zero,-4(fp)
 40002c8:	00000306 	br	40002d8 <Delay_Long+0x24>
 40002cc:	e0bfff17 	ldw	r2,-4(fp)
 40002d0:	10800044 	addi	r2,r2,1
 40002d4:	e0bfff15 	stw	r2,-4(fp)
 40002d8:	e0ffff17 	ldw	r3,-4(fp)
 40002dc:	00800234 	movhi	r2,8
 40002e0:	10a847c4 	addi	r2,r2,-24289
 40002e4:	10fff90e 	bge	r2,r3,40002cc <__alt_data_end+0xfc0002cc>
 40002e8:	0001883a 	nop
 40002ec:	e037883a 	mov	sp,fp
 40002f0:	df000017 	ldw	fp,0(sp)
 40002f4:	dec00104 	addi	sp,sp,4
 40002f8:	f800283a 	ret

040002fc <Delay_Medium>:
void Delay_Medium  () {int d = 0; for (d = 0; d <   150000; d++);}
 40002fc:	defffe04 	addi	sp,sp,-8
 4000300:	df000115 	stw	fp,4(sp)
 4000304:	df000104 	addi	fp,sp,4
 4000308:	e03fff15 	stw	zero,-4(fp)
 400030c:	e03fff15 	stw	zero,-4(fp)
 4000310:	00000306 	br	4000320 <Delay_Medium+0x24>
 4000314:	e0bfff17 	ldw	r2,-4(fp)
 4000318:	10800044 	addi	r2,r2,1
 400031c:	e0bfff15 	stw	r2,-4(fp)
 4000320:	e0ffff17 	ldw	r3,-4(fp)
 4000324:	008000b4 	movhi	r2,2
 4000328:	10927bc4 	addi	r2,r2,18927
 400032c:	10fff90e 	bge	r2,r3,4000314 <__alt_data_end+0xfc000314>
 4000330:	0001883a 	nop
 4000334:	e037883a 	mov	sp,fp
 4000338:	df000017 	ldw	fp,0(sp)
 400033c:	dec00104 	addi	sp,sp,4
 4000340:	f800283a 	ret

04000344 <Delay_Short>:
void Delay_Short   () {int d = 0; for (d = 0; d <     5000; d++);}
 4000344:	defffe04 	addi	sp,sp,-8
 4000348:	df000115 	stw	fp,4(sp)
 400034c:	df000104 	addi	fp,sp,4
 4000350:	e03fff15 	stw	zero,-4(fp)
 4000354:	e03fff15 	stw	zero,-4(fp)
 4000358:	00000306 	br	4000368 <Delay_Short+0x24>
 400035c:	e0bfff17 	ldw	r2,-4(fp)
 4000360:	10800044 	addi	r2,r2,1
 4000364:	e0bfff15 	stw	r2,-4(fp)
 4000368:	e0bfff17 	ldw	r2,-4(fp)
 400036c:	1084e210 	cmplti	r2,r2,5000
 4000370:	103ffa1e 	bne	r2,zero,400035c <__alt_data_end+0xfc00035c>
 4000374:	0001883a 	nop
 4000378:	e037883a 	mov	sp,fp
 400037c:	df000017 	ldw	fp,0(sp)
 4000380:	dec00104 	addi	sp,sp,4
 4000384:	f800283a 	ret

04000388 <Delay_Pulse>:
void Delay_Pulse   () {int d = 0; for (d = 0; d <        1; d++);}
 4000388:	defffe04 	addi	sp,sp,-8
 400038c:	df000115 	stw	fp,4(sp)
 4000390:	df000104 	addi	fp,sp,4
 4000394:	e03fff15 	stw	zero,-4(fp)
 4000398:	e03fff15 	stw	zero,-4(fp)
 400039c:	00000306 	br	40003ac <Delay_Pulse+0x24>
 40003a0:	e0bfff17 	ldw	r2,-4(fp)
 40003a4:	10800044 	addi	r2,r2,1
 40003a8:	e0bfff15 	stw	r2,-4(fp)
 40003ac:	e0bfff17 	ldw	r2,-4(fp)
 40003b0:	00bffb0e 	bge	zero,r2,40003a0 <__alt_data_end+0xfc0003a0>
 40003b4:	0001883a 	nop
 40003b8:	e037883a 	mov	sp,fp
 40003bc:	df000017 	ldw	fp,0(sp)
 40003c0:	dec00104 	addi	sp,sp,4
 40003c4:	f800283a 	ret

040003c8 <draw>:


void draw(int dd[24][16], int color, int x_offset, int y_offset)
{
 40003c8:	defff504 	addi	sp,sp,-44
 40003cc:	dfc00a15 	stw	ra,40(sp)
 40003d0:	df000915 	stw	fp,36(sp)
 40003d4:	dc400815 	stw	r17,32(sp)
 40003d8:	dc000715 	stw	r16,28(sp)
 40003dc:	df000904 	addi	fp,sp,36
 40003e0:	e13ffa15 	stw	r4,-24(fp)
 40003e4:	e17ffb15 	stw	r5,-20(fp)
 40003e8:	e1bffc15 	stw	r6,-16(fp)
 40003ec:	e1fffd15 	stw	r7,-12(fp)
alt_up_pixel_buffer_dma_dev* hPB = alt_up_pixel_buffer_dma_open_dev (VGA_PIXEL_DMA_NAME);
 40003f0:	010100f4 	movhi	r4,1027
 40003f4:	212a6604 	addi	r4,r4,-22120
 40003f8:	40286ec0 	call	40286ec <alt_up_pixel_buffer_dma_open_dev>
 40003fc:	e0bff915 	stw	r2,-28(fp)

int vertical, horizontal;

for (vertical=0; vertical<24; vertical++)
 4000400:	e03ff715 	stw	zero,-36(fp)
 4000404:	00002606 	br	40004a0 <draw+0xd8>
{
for (horizontal=0; horizontal<16; horizontal++)
 4000408:	e03ff815 	stw	zero,-32(fp)
 400040c:	00001e06 	br	4000488 <draw+0xc0>
{
if (dd[vertical][horizontal] > 0)
 4000410:	e0bff717 	ldw	r2,-36(fp)
 4000414:	100491ba 	slli	r2,r2,6
 4000418:	e0fffa17 	ldw	r3,-24(fp)
 400041c:	1887883a 	add	r3,r3,r2
 4000420:	e0bff817 	ldw	r2,-32(fp)
 4000424:	1085883a 	add	r2,r2,r2
 4000428:	1085883a 	add	r2,r2,r2
 400042c:	1885883a 	add	r2,r3,r2
 4000430:	10800017 	ldw	r2,0(r2)
 4000434:	0080110e 	bge	zero,r2,400047c <draw+0xb4>
{
alt_up_pixel_buffer_dma_draw (hPB, color, horizontal+x_offset*16, vertical+y_offset*24);
 4000438:	e43ffb17 	ldw	r16,-20(fp)
 400043c:	e0bffc17 	ldw	r2,-16(fp)
 4000440:	1006913a 	slli	r3,r2,4
 4000444:	e0bff817 	ldw	r2,-32(fp)
 4000448:	1885883a 	add	r2,r3,r2
 400044c:	1023883a 	mov	r17,r2
 4000450:	01400604 	movi	r5,24
 4000454:	e13ffd17 	ldw	r4,-12(fp)
 4000458:	40191000 	call	4019100 <__mulsi3>
 400045c:	1007883a 	mov	r3,r2
 4000460:	e0bff717 	ldw	r2,-36(fp)
 4000464:	1885883a 	add	r2,r3,r2
 4000468:	100f883a 	mov	r7,r2
 400046c:	880d883a 	mov	r6,r17
 4000470:	800b883a 	mov	r5,r16
 4000474:	e13ff917 	ldw	r4,-28(fp)
 4000478:	40287280 	call	4028728 <alt_up_pixel_buffer_dma_draw>

int vertical, horizontal;

for (vertical=0; vertical<24; vertical++)
{
for (horizontal=0; horizontal<16; horizontal++)
 400047c:	e0bff817 	ldw	r2,-32(fp)
 4000480:	10800044 	addi	r2,r2,1
 4000484:	e0bff815 	stw	r2,-32(fp)
 4000488:	e0bff817 	ldw	r2,-32(fp)
 400048c:	10800410 	cmplti	r2,r2,16
 4000490:	103fdf1e 	bne	r2,zero,4000410 <__alt_data_end+0xfc000410>
{
alt_up_pixel_buffer_dma_dev* hPB = alt_up_pixel_buffer_dma_open_dev (VGA_PIXEL_DMA_NAME);

int vertical, horizontal;

for (vertical=0; vertical<24; vertical++)
 4000494:	e0bff717 	ldw	r2,-36(fp)
 4000498:	10800044 	addi	r2,r2,1
 400049c:	e0bff715 	stw	r2,-36(fp)
 40004a0:	e0bff717 	ldw	r2,-36(fp)
 40004a4:	10800610 	cmplti	r2,r2,24
 40004a8:	103fd71e 	bne	r2,zero,4000408 <__alt_data_end+0xfc000408>
{
alt_up_pixel_buffer_dma_draw (hPB, color, horizontal+x_offset*16, vertical+y_offset*24);
}
}
}
}
 40004ac:	0001883a 	nop
 40004b0:	e6fffe04 	addi	sp,fp,-8
 40004b4:	dfc00317 	ldw	ra,12(sp)
 40004b8:	df000217 	ldw	fp,8(sp)
 40004bc:	dc400117 	ldw	r17,4(sp)
 40004c0:	dc000017 	ldw	r16,0(sp)
 40004c4:	dec00404 	addi	sp,sp,16
 40004c8:	f800283a 	ret

040004cc <draw1>:

void draw1(int bb[12][8], int color, int x_offset, int y_offset)
{
 40004cc:	defff504 	addi	sp,sp,-44
 40004d0:	dfc00a15 	stw	ra,40(sp)
 40004d4:	df000915 	stw	fp,36(sp)
 40004d8:	dc400815 	stw	r17,32(sp)
 40004dc:	dc000715 	stw	r16,28(sp)
 40004e0:	df000904 	addi	fp,sp,36
 40004e4:	e13ffa15 	stw	r4,-24(fp)
 40004e8:	e17ffb15 	stw	r5,-20(fp)
 40004ec:	e1bffc15 	stw	r6,-16(fp)
 40004f0:	e1fffd15 	stw	r7,-12(fp)
alt_up_pixel_buffer_dma_dev* hPB = alt_up_pixel_buffer_dma_open_dev (VGA_PIXEL_DMA_NAME);
 40004f4:	010100f4 	movhi	r4,1027
 40004f8:	212a6604 	addi	r4,r4,-22120
 40004fc:	40286ec0 	call	40286ec <alt_up_pixel_buffer_dma_open_dev>
 4000500:	e0bff915 	stw	r2,-28(fp)

int vert;
int hori;

for (vert=0; vert<12; vert++)
 4000504:	e03ff715 	stw	zero,-36(fp)
 4000508:	00002706 	br	40005a8 <draw1+0xdc>
{
for (hori=0; hori<8; hori++)
 400050c:	e03ff815 	stw	zero,-32(fp)
 4000510:	00001f06 	br	4000590 <draw1+0xc4>
{
if (bb[vert][hori] == 1 )
 4000514:	e0bff717 	ldw	r2,-36(fp)
 4000518:	1004917a 	slli	r2,r2,5
 400051c:	e0fffa17 	ldw	r3,-24(fp)
 4000520:	1887883a 	add	r3,r3,r2
 4000524:	e0bff817 	ldw	r2,-32(fp)
 4000528:	1085883a 	add	r2,r2,r2
 400052c:	1085883a 	add	r2,r2,r2
 4000530:	1885883a 	add	r2,r3,r2
 4000534:	10800017 	ldw	r2,0(r2)
 4000538:	10800058 	cmpnei	r2,r2,1
 400053c:	1000111e 	bne	r2,zero,4000584 <draw1+0xb8>
{
alt_up_pixel_buffer_dma_draw (hPB, color, hori+x_offset*8, vert+y_offset*12);
 4000540:	e43ffb17 	ldw	r16,-20(fp)
 4000544:	e0bffc17 	ldw	r2,-16(fp)
 4000548:	100690fa 	slli	r3,r2,3
 400054c:	e0bff817 	ldw	r2,-32(fp)
 4000550:	1885883a 	add	r2,r3,r2
 4000554:	1023883a 	mov	r17,r2
 4000558:	01400304 	movi	r5,12
 400055c:	e13ffd17 	ldw	r4,-12(fp)
 4000560:	40191000 	call	4019100 <__mulsi3>
 4000564:	1007883a 	mov	r3,r2
 4000568:	e0bff717 	ldw	r2,-36(fp)
 400056c:	1885883a 	add	r2,r3,r2
 4000570:	100f883a 	mov	r7,r2
 4000574:	880d883a 	mov	r6,r17
 4000578:	800b883a 	mov	r5,r16
 400057c:	e13ff917 	ldw	r4,-28(fp)
 4000580:	40287280 	call	4028728 <alt_up_pixel_buffer_dma_draw>
int vert;
int hori;

for (vert=0; vert<12; vert++)
{
for (hori=0; hori<8; hori++)
 4000584:	e0bff817 	ldw	r2,-32(fp)
 4000588:	10800044 	addi	r2,r2,1
 400058c:	e0bff815 	stw	r2,-32(fp)
 4000590:	e0bff817 	ldw	r2,-32(fp)
 4000594:	10800210 	cmplti	r2,r2,8
 4000598:	103fde1e 	bne	r2,zero,4000514 <__alt_data_end+0xfc000514>
alt_up_pixel_buffer_dma_dev* hPB = alt_up_pixel_buffer_dma_open_dev (VGA_PIXEL_DMA_NAME);

int vert;
int hori;

for (vert=0; vert<12; vert++)
 400059c:	e0bff717 	ldw	r2,-36(fp)
 40005a0:	10800044 	addi	r2,r2,1
 40005a4:	e0bff715 	stw	r2,-36(fp)
 40005a8:	e0bff717 	ldw	r2,-36(fp)
 40005ac:	10800310 	cmplti	r2,r2,12
 40005b0:	103fd61e 	bne	r2,zero,400050c <__alt_data_end+0xfc00050c>
{
alt_up_pixel_buffer_dma_draw (hPB, color, hori+x_offset*8, vert+y_offset*12);
}
}
}
}
 40005b4:	0001883a 	nop
 40005b8:	e6fffe04 	addi	sp,fp,-8
 40005bc:	dfc00317 	ldw	ra,12(sp)
 40005c0:	df000217 	ldw	fp,8(sp)
 40005c4:	dc400117 	ldw	r17,4(sp)
 40005c8:	dc000017 	ldw	r16,0(sp)
 40005cc:	dec00404 	addi	sp,sp,16
 40005d0:	f800283a 	ret

040005d4 <main>:

int main ()
{
 40005d4:	def7bf04 	addi	sp,sp,-8452
 40005d8:	dfc84015 	stw	ra,8448(sp)
 40005dc:	df083f15 	stw	fp,8444(sp)
 40005e0:	dc483e15 	stw	r17,8440(sp)
 40005e4:	dc083d15 	stw	r16,8436(sp)
 40005e8:	df083f04 	addi	fp,sp,8444

int x=0;
 40005ec:	e037c115 	stw	zero,-8444(fp)
int y=0;
 40005f0:	e037c215 	stw	zero,-8440(fp)
int z;
int square[24][16]=    {{1, 1, 1, 1, 1, 1, 1, 1, 1, 1, 1, 1, 1, 1, 1, 1}
 40005f4:	e0b7de04 	addi	r2,fp,-8328
 40005f8:	00c18004 	movi	r3,1536
 40005fc:	180d883a 	mov	r6,r3
 4000600:	000b883a 	mov	r5,zero
 4000604:	1009883a 	mov	r4,r2
 4000608:	40192700 	call	4019270 <memset>
 400060c:	00800044 	movi	r2,1
 4000610:	e0b7de15 	stw	r2,-8328(fp)
 4000614:	00800044 	movi	r2,1
 4000618:	e0b7df15 	stw	r2,-8324(fp)
 400061c:	00800044 	movi	r2,1
 4000620:	e0b7e015 	stw	r2,-8320(fp)
 4000624:	00800044 	movi	r2,1
 4000628:	e0b7e115 	stw	r2,-8316(fp)
 400062c:	00800044 	movi	r2,1
 4000630:	e0b7e215 	stw	r2,-8312(fp)
 4000634:	00800044 	movi	r2,1
 4000638:	e0b7e315 	stw	r2,-8308(fp)
 400063c:	00800044 	movi	r2,1
 4000640:	e0b7e415 	stw	r2,-8304(fp)
 4000644:	00800044 	movi	r2,1
 4000648:	e0b7e515 	stw	r2,-8300(fp)
 400064c:	00800044 	movi	r2,1
 4000650:	e0b7e615 	stw	r2,-8296(fp)
 4000654:	00800044 	movi	r2,1
 4000658:	e0b7e715 	stw	r2,-8292(fp)
 400065c:	00800044 	movi	r2,1
 4000660:	e0b7e815 	stw	r2,-8288(fp)
 4000664:	00800044 	movi	r2,1
 4000668:	e0b7e915 	stw	r2,-8284(fp)
 400066c:	00800044 	movi	r2,1
 4000670:	e0b7ea15 	stw	r2,-8280(fp)
 4000674:	00800044 	movi	r2,1
 4000678:	e0b7eb15 	stw	r2,-8276(fp)
 400067c:	00800044 	movi	r2,1
 4000680:	e0b7ec15 	stw	r2,-8272(fp)
 4000684:	00800044 	movi	r2,1
 4000688:	e0b7ed15 	stw	r2,-8268(fp)
 400068c:	00800044 	movi	r2,1
 4000690:	e0b7ee15 	stw	r2,-8264(fp)
 4000694:	00800044 	movi	r2,1
 4000698:	e0b7fd15 	stw	r2,-8204(fp)
 400069c:	00800044 	movi	r2,1
 40006a0:	e0b7fe15 	stw	r2,-8200(fp)
 40006a4:	00800044 	movi	r2,1
 40006a8:	e0b80d15 	stw	r2,-8140(fp)
 40006ac:	00800044 	movi	r2,1
 40006b0:	e0b80e15 	stw	r2,-8136(fp)
 40006b4:	00800044 	movi	r2,1
 40006b8:	e0b81d15 	stw	r2,-8076(fp)
 40006bc:	00800044 	movi	r2,1
 40006c0:	e0b81e15 	stw	r2,-8072(fp)
 40006c4:	00800044 	movi	r2,1
 40006c8:	e0b82d15 	stw	r2,-8012(fp)
 40006cc:	00800044 	movi	r2,1
 40006d0:	e0b82e15 	stw	r2,-8008(fp)
 40006d4:	00800044 	movi	r2,1
 40006d8:	e0b83d15 	stw	r2,-7948(fp)
 40006dc:	00800044 	movi	r2,1
 40006e0:	e0b83e15 	stw	r2,-7944(fp)
 40006e4:	00800044 	movi	r2,1
 40006e8:	e0b84d15 	stw	r2,-7884(fp)
 40006ec:	00800044 	movi	r2,1
 40006f0:	e0b84e15 	stw	r2,-7880(fp)
 40006f4:	00800044 	movi	r2,1
 40006f8:	e0b85d15 	stw	r2,-7820(fp)
 40006fc:	00800044 	movi	r2,1
 4000700:	e0b85e15 	stw	r2,-7816(fp)
 4000704:	00800044 	movi	r2,1
 4000708:	e0b86d15 	stw	r2,-7756(fp)
 400070c:	00800044 	movi	r2,1
 4000710:	e0b86e15 	stw	r2,-7752(fp)
 4000714:	00800044 	movi	r2,1
 4000718:	e0b87d15 	stw	r2,-7692(fp)
 400071c:	00800044 	movi	r2,1
 4000720:	e0b87e15 	stw	r2,-7688(fp)
 4000724:	00800044 	movi	r2,1
 4000728:	e0b88d15 	stw	r2,-7628(fp)
 400072c:	00800044 	movi	r2,1
 4000730:	e0b88e15 	stw	r2,-7624(fp)
 4000734:	00800044 	movi	r2,1
 4000738:	e0b89d15 	stw	r2,-7564(fp)
 400073c:	00800044 	movi	r2,1
 4000740:	e0b89e15 	stw	r2,-7560(fp)
 4000744:	00800044 	movi	r2,1
 4000748:	e0b8ad15 	stw	r2,-7500(fp)
 400074c:	00800044 	movi	r2,1
 4000750:	e0b8ae15 	stw	r2,-7496(fp)
 4000754:	00800044 	movi	r2,1
 4000758:	e0b8bd15 	stw	r2,-7436(fp)
 400075c:	00800044 	movi	r2,1
 4000760:	e0b8be15 	stw	r2,-7432(fp)
 4000764:	00800044 	movi	r2,1
 4000768:	e0b8cd15 	stw	r2,-7372(fp)
 400076c:	00800044 	movi	r2,1
 4000770:	e0b8ce15 	stw	r2,-7368(fp)
 4000774:	00800044 	movi	r2,1
 4000778:	e0b8dd15 	stw	r2,-7308(fp)
 400077c:	00800044 	movi	r2,1
 4000780:	e0b8de15 	stw	r2,-7304(fp)
 4000784:	00800044 	movi	r2,1
 4000788:	e0b8ed15 	stw	r2,-7244(fp)
 400078c:	00800044 	movi	r2,1
 4000790:	e0b8ee15 	stw	r2,-7240(fp)
 4000794:	00800044 	movi	r2,1
 4000798:	e0b8fd15 	stw	r2,-7180(fp)
 400079c:	00800044 	movi	r2,1
 40007a0:	e0b8fe15 	stw	r2,-7176(fp)
 40007a4:	00800044 	movi	r2,1
 40007a8:	e0b90d15 	stw	r2,-7116(fp)
 40007ac:	00800044 	movi	r2,1
 40007b0:	e0b90e15 	stw	r2,-7112(fp)
 40007b4:	00800044 	movi	r2,1
 40007b8:	e0b91d15 	stw	r2,-7052(fp)
 40007bc:	00800044 	movi	r2,1
 40007c0:	e0b91e15 	stw	r2,-7048(fp)
 40007c4:	00800044 	movi	r2,1
 40007c8:	e0b92d15 	stw	r2,-6988(fp)
 40007cc:	00800044 	movi	r2,1
 40007d0:	e0b92e15 	stw	r2,-6984(fp)
 40007d4:	00800044 	movi	r2,1
 40007d8:	e0b93d15 	stw	r2,-6924(fp)
 40007dc:	00800044 	movi	r2,1
 40007e0:	e0b93e15 	stw	r2,-6920(fp)
 40007e4:	00800044 	movi	r2,1
 40007e8:	e0b94d15 	stw	r2,-6860(fp)
 40007ec:	00800044 	movi	r2,1
 40007f0:	e0b94e15 	stw	r2,-6856(fp)
 40007f4:	00800044 	movi	r2,1
 40007f8:	e0b94f15 	stw	r2,-6852(fp)
 40007fc:	00800044 	movi	r2,1
 4000800:	e0b95015 	stw	r2,-6848(fp)
 4000804:	00800044 	movi	r2,1
 4000808:	e0b95115 	stw	r2,-6844(fp)
 400080c:	00800044 	movi	r2,1
 4000810:	e0b95215 	stw	r2,-6840(fp)
 4000814:	00800044 	movi	r2,1
 4000818:	e0b95315 	stw	r2,-6836(fp)
 400081c:	00800044 	movi	r2,1
 4000820:	e0b95415 	stw	r2,-6832(fp)
 4000824:	00800044 	movi	r2,1
 4000828:	e0b95515 	stw	r2,-6828(fp)
 400082c:	00800044 	movi	r2,1
 4000830:	e0b95615 	stw	r2,-6824(fp)
 4000834:	00800044 	movi	r2,1
 4000838:	e0b95715 	stw	r2,-6820(fp)
 400083c:	00800044 	movi	r2,1
 4000840:	e0b95815 	stw	r2,-6816(fp)
 4000844:	00800044 	movi	r2,1
 4000848:	e0b95915 	stw	r2,-6812(fp)
 400084c:	00800044 	movi	r2,1
 4000850:	e0b95a15 	stw	r2,-6808(fp)
 4000854:	00800044 	movi	r2,1
 4000858:	e0b95b15 	stw	r2,-6804(fp)
 400085c:	00800044 	movi	r2,1
 4000860:	e0b95c15 	stw	r2,-6800(fp)
 4000864:	00800044 	movi	r2,1
 4000868:	e0b95d15 	stw	r2,-6796(fp)
					  , {1, 0, 0, 0, 0, 0, 0, 0, 0, 0, 0, 0, 0, 0, 0, 1}
					  , {1, 0, 0, 0, 0, 0, 0, 0, 0, 0, 0, 0, 0, 0, 0, 1}
					  , {1, 0, 0, 0, 0, 0, 0, 0, 0, 0, 0, 0, 0, 0, 0, 1}
					  , {1, 0, 0, 0, 0, 0, 0, 0, 0, 0, 0, 0, 0, 0, 0, 1}
					  , {1, 1, 1, 1, 1, 1, 1, 1, 1, 1, 1, 1, 1, 1, 1, 1}};//images/square.png//square.png
	int white[24][16]= {{1, 1, 1, 1, 1, 1, 1, 1, 1, 1, 1, 1, 1, 1, 1, 1}
 400086c:	008100f4 	movhi	r2,1027
 4000870:	10aa7e04 	addi	r2,r2,-22024
 4000874:	e0f95e04 	addi	r3,fp,-6792
 4000878:	1009883a 	mov	r4,r2
 400087c:	00818004 	movi	r2,1536
 4000880:	100d883a 	mov	r6,r2
 4000884:	200b883a 	mov	r5,r4
 4000888:	1809883a 	mov	r4,r3
 400088c:	40191280 	call	4019128 <memcpy>
					  , {1, 1, 1, 1, 1, 1, 1, 1, 1, 1, 1, 1, 1, 1, 1, 1}
					  , {1, 1, 1, 1, 1, 1, 1, 1, 1, 1, 1, 1, 1, 1, 1, 1}
					  , {1, 1, 1, 1, 1, 1, 1, 1, 1, 1, 1, 1, 1, 1, 1, 1}};//images/square.png//square.png


	int dig_col[12][8]={{0,0,0,0,0,0,0,0}
 4000890:	e0bade04 	addi	r2,fp,-5256
 4000894:	00c06004 	movi	r3,384
 4000898:	180d883a 	mov	r6,r3
 400089c:	000b883a 	mov	r5,zero
 40008a0:	1009883a 	mov	r4,r2
 40008a4:	40192700 	call	4019270 <memset>
 40008a8:	00800044 	movi	r2,1
 40008ac:	e0baf115 	stw	r2,-5180(fp)
 40008b0:	00800044 	movi	r2,1
 40008b4:	e0baf215 	stw	r2,-5176(fp)
 40008b8:	00800044 	movi	r2,1
 40008bc:	e0baf915 	stw	r2,-5148(fp)
 40008c0:	00800044 	movi	r2,1
 40008c4:	e0bafa15 	stw	r2,-5144(fp)
 40008c8:	00800044 	movi	r2,1
 40008cc:	e0bb2115 	stw	r2,-4988(fp)
 40008d0:	00800044 	movi	r2,1
 40008d4:	e0bb2215 	stw	r2,-4984(fp)
 40008d8:	00800044 	movi	r2,1
 40008dc:	e0bb2915 	stw	r2,-4956(fp)
 40008e0:	00800044 	movi	r2,1
 40008e4:	e0bb2a15 	stw	r2,-4952(fp)
					   ,{0,0,0,1,1,0,0,0}
					   ,{0,0,0,1,1,0,0,0}
					   ,{0,0,0,0,0,0,0,0}
					   ,{0,0,0,0,0,0,0,0}};

	int dig_zero[12][8]={{0,0,0,0,0,0,0,0}
 40008e8:	008100f4 	movhi	r2,1027
 40008ec:	10abfe04 	addi	r2,r2,-20488
 40008f0:	e0fb3e04 	addi	r3,fp,-4872
 40008f4:	1009883a 	mov	r4,r2
 40008f8:	00806004 	movi	r2,384
 40008fc:	100d883a 	mov	r6,r2
 4000900:	200b883a 	mov	r5,r4
 4000904:	1809883a 	mov	r4,r3
 4000908:	40191280 	call	4019128 <memcpy>
					    ,{0,1,1,0,0,1,1,0}
					    ,{0,1,1,1,1,1,1,0}
					    ,{0,1,1,1,1,1,1,0}
					    ,{0,0,0,0,0,0,0,0}};

	int dig_one[12][8]={{0,0,0,0,0,0,0,0}
 400090c:	e0bb9e04 	addi	r2,fp,-4488
 4000910:	00c06004 	movi	r3,384
 4000914:	180d883a 	mov	r6,r3
 4000918:	000b883a 	mov	r5,zero
 400091c:	1009883a 	mov	r4,r2
 4000920:	40192700 	call	4019270 <memset>
 4000924:	00800044 	movi	r2,1
 4000928:	e0bba915 	stw	r2,-4444(fp)
 400092c:	00800044 	movi	r2,1
 4000930:	e0bbaa15 	stw	r2,-4440(fp)
 4000934:	00800044 	movi	r2,1
 4000938:	e0bbb115 	stw	r2,-4412(fp)
 400093c:	00800044 	movi	r2,1
 4000940:	e0bbb215 	stw	r2,-4408(fp)
 4000944:	00800044 	movi	r2,1
 4000948:	e0bbb915 	stw	r2,-4380(fp)
 400094c:	00800044 	movi	r2,1
 4000950:	e0bbba15 	stw	r2,-4376(fp)
 4000954:	00800044 	movi	r2,1
 4000958:	e0bbc115 	stw	r2,-4348(fp)
 400095c:	00800044 	movi	r2,1
 4000960:	e0bbc215 	stw	r2,-4344(fp)
 4000964:	00800044 	movi	r2,1
 4000968:	e0bbc915 	stw	r2,-4316(fp)
 400096c:	00800044 	movi	r2,1
 4000970:	e0bbca15 	stw	r2,-4312(fp)
 4000974:	00800044 	movi	r2,1
 4000978:	e0bbd115 	stw	r2,-4284(fp)
 400097c:	00800044 	movi	r2,1
 4000980:	e0bbd215 	stw	r2,-4280(fp)
 4000984:	00800044 	movi	r2,1
 4000988:	e0bbd915 	stw	r2,-4252(fp)
 400098c:	00800044 	movi	r2,1
 4000990:	e0bbda15 	stw	r2,-4248(fp)
 4000994:	00800044 	movi	r2,1
 4000998:	e0bbe115 	stw	r2,-4220(fp)
 400099c:	00800044 	movi	r2,1
 40009a0:	e0bbe215 	stw	r2,-4216(fp)
 40009a4:	00800044 	movi	r2,1
 40009a8:	e0bbe915 	stw	r2,-4188(fp)
 40009ac:	00800044 	movi	r2,1
 40009b0:	e0bbea15 	stw	r2,-4184(fp)
 40009b4:	00800044 	movi	r2,1
 40009b8:	e0bbf115 	stw	r2,-4156(fp)
 40009bc:	00800044 	movi	r2,1
 40009c0:	e0bbf215 	stw	r2,-4152(fp)
					   ,{0,0,0,1,1,0,0,0}
					   ,{0,0,0,1,1,0,0,0}
					   ,{0,0,0,1,1,0,0,0}
					   ,{0,0,0,0,0,0,0,0}};

	int dig_two[12][8]={{0,0,0,0,0,0,0,0}
 40009c4:	008100f4 	movhi	r2,1027
 40009c8:	10ac5e04 	addi	r2,r2,-20104
 40009cc:	e0fbfe04 	addi	r3,fp,-4104
 40009d0:	1009883a 	mov	r4,r2
 40009d4:	00806004 	movi	r2,384
 40009d8:	100d883a 	mov	r6,r2
 40009dc:	200b883a 	mov	r5,r4
 40009e0:	1809883a 	mov	r4,r3
 40009e4:	40191280 	call	4019128 <memcpy>
					   ,{0,1,1,0,0,0,0,0}
					   ,{0,1,1,1,1,1,1,0}
					   ,{0,1,1,1,1,1,1,0}
					   ,{0,0,0,0,0,0,0,0}};

	int dig_three[12][8]={{0,0,0,0,0,0,0,0}
 40009e8:	008100f4 	movhi	r2,1027
 40009ec:	10acbe04 	addi	r2,r2,-19720
 40009f0:	e0fc5e04 	addi	r3,fp,-3720
 40009f4:	1009883a 	mov	r4,r2
 40009f8:	00806004 	movi	r2,384
 40009fc:	100d883a 	mov	r6,r2
 4000a00:	200b883a 	mov	r5,r4
 4000a04:	1809883a 	mov	r4,r3
 4000a08:	40191280 	call	4019128 <memcpy>
					     ,{0,0,0,0,0,1,1,0}
					     ,{0,1,1,1,1,1,1,0}
					     ,{0,1,1,1,1,1,1,0}
					     ,{0,0,0,0,0,0,0,0}};

	int dig_four[12][8]={{0,0,0,0,0,0,0,0}
 4000a0c:	008100f4 	movhi	r2,1027
 4000a10:	10ad1e04 	addi	r2,r2,-19336
 4000a14:	e0fcbe04 	addi	r3,fp,-3336
 4000a18:	1009883a 	mov	r4,r2
 4000a1c:	00806004 	movi	r2,384
 4000a20:	100d883a 	mov	r6,r2
 4000a24:	200b883a 	mov	r5,r4
 4000a28:	1809883a 	mov	r4,r3
 4000a2c:	40191280 	call	4019128 <memcpy>
					    ,{0,0,0,0,0,1,1,0}
					    ,{0,0,0,0,0,1,1,0}
					    ,{0,0,0,0,0,1,1,0}
					    ,{0,0,0,0,0,0,0,0}};

	int dig_five[12][8]={{0,0,0,0,0,0,0,0}
 4000a30:	008100f4 	movhi	r2,1027
 4000a34:	10ad7e04 	addi	r2,r2,-18952
 4000a38:	e0fd1e04 	addi	r3,fp,-2952
 4000a3c:	1009883a 	mov	r4,r2
 4000a40:	00806004 	movi	r2,384
 4000a44:	100d883a 	mov	r6,r2
 4000a48:	200b883a 	mov	r5,r4
 4000a4c:	1809883a 	mov	r4,r3
 4000a50:	40191280 	call	4019128 <memcpy>
					    ,{0,0,0,0,0,1,1,0}
					    ,{0,1,1,1,1,1,1,0}
					    ,{0,1,1,1,1,1,1,0}
					    ,{0,0,0,0,0,0,0,0}};

	int dig_six[12][8]={{0,0,0,0,0,0,0,0}
 4000a54:	008100f4 	movhi	r2,1027
 4000a58:	10adde04 	addi	r2,r2,-18568
 4000a5c:	e0fd7e04 	addi	r3,fp,-2568
 4000a60:	1009883a 	mov	r4,r2
 4000a64:	00806004 	movi	r2,384
 4000a68:	100d883a 	mov	r6,r2
 4000a6c:	200b883a 	mov	r5,r4
 4000a70:	1809883a 	mov	r4,r3
 4000a74:	40191280 	call	4019128 <memcpy>
					   ,{0,1,1,0,0,1,1,0}
					   ,{0,1,1,1,1,1,1,0}
					   ,{0,1,1,1,1,1,1,0}
					   ,{0,0,0,0,0,0,0,0}};

	int dig_seven[12][8]={{0,0,0,0,0,0,0,0}
 4000a78:	008100f4 	movhi	r2,1027
 4000a7c:	10ae3e04 	addi	r2,r2,-18184
 4000a80:	e0fdde04 	addi	r3,fp,-2184
 4000a84:	1009883a 	mov	r4,r2
 4000a88:	00806004 	movi	r2,384
 4000a8c:	100d883a 	mov	r6,r2
 4000a90:	200b883a 	mov	r5,r4
 4000a94:	1809883a 	mov	r4,r3
 4000a98:	40191280 	call	4019128 <memcpy>
					     ,{0,0,0,0,0,1,1,0}
					     ,{0,0,0,0,0,1,1,0}
					     ,{0,0,0,0,0,1,1,0}
					     ,{0,0,0,0,0,0,0,0}};

	int dig_eight[12][8]={{0,0,0,0,0,0,0,0}
 4000a9c:	008100f4 	movhi	r2,1027
 4000aa0:	10ae9e04 	addi	r2,r2,-17800
 4000aa4:	e0fe3e04 	addi	r3,fp,-1800
 4000aa8:	1009883a 	mov	r4,r2
 4000aac:	00806004 	movi	r2,384
 4000ab0:	100d883a 	mov	r6,r2
 4000ab4:	200b883a 	mov	r5,r4
 4000ab8:	1809883a 	mov	r4,r3
 4000abc:	40191280 	call	4019128 <memcpy>
					     ,{0,1,1,0,0,1,1,0}
					     ,{0,1,1,1,1,1,1,0}
					     ,{0,1,1,1,1,1,1,0}
					     ,{0,0,0,0,0,0,0,0}};

	int dig_nine[12][8]={{0,0,0,0,0,0,0,0}
 4000ac0:	008100f4 	movhi	r2,1027
 4000ac4:	10aefe04 	addi	r2,r2,-17416
 4000ac8:	e0fe9e04 	addi	r3,fp,-1416
 4000acc:	1009883a 	mov	r4,r2
 4000ad0:	00806004 	movi	r2,384
 4000ad4:	100d883a 	mov	r6,r2
 4000ad8:	200b883a 	mov	r5,r4
 4000adc:	1809883a 	mov	r4,r3
 4000ae0:	40191280 	call	4019128 <memcpy>
					    ,{0,0,0,0,0,1,1,0}
					    ,{0,1,1,1,1,1,1,0}
					    ,{0,1,1,1,1,1,1,0}
					    ,{0,0,0,0,0,0,0,0}};

	int dig_blank[12][8]={{1,1,1,1,1,1,1,1}
 4000ae4:	008100f4 	movhi	r2,1027
 4000ae8:	10af5e04 	addi	r2,r2,-17032
 4000aec:	e0fefe04 	addi	r3,fp,-1032
 4000af0:	1009883a 	mov	r4,r2
 4000af4:	00806004 	movi	r2,384
 4000af8:	100d883a 	mov	r6,r2
 4000afc:	200b883a 	mov	r5,r4
 4000b00:	1809883a 	mov	r4,r3
 4000b04:	40191280 	call	4019128 <memcpy>
					     ,{1,1,1,1,1,1,1,1}
					     ,{1,1,1,1,1,1,1,1}
					     ,{1,1,1,1,1,1,1,1}
					     ,{1,1,1,1,1,1,1,1}};

alt_up_pixel_buffer_dma_dev* hPB = alt_up_pixel_buffer_dma_open_dev (VGA_PIXEL_DMA_NAME);
 4000b08:	010100f4 	movhi	r4,1027
 4000b0c:	212a6604 	addi	r4,r4,-22120
 4000b10:	40286ec0 	call	40286ec <alt_up_pixel_buffer_dma_open_dev>
 4000b14:	e0b7c815 	stw	r2,-8416(fp)

    if (hPB == NULL)
 4000b18:	e0b7c817 	ldw	r2,-8416(fp)
 4000b1c:	1000041e 	bne	r2,zero,4000b30 <main+0x55c>
    {
printf ("No VGA system in present\n");
 4000b20:	010100f4 	movhi	r4,1027
 4000b24:	212a6b04 	addi	r4,r4,-22100
 4000b28:	40194c40 	call	40194c4 <puts>
while (1);
 4000b2c:	003fff06 	br	4000b2c <__alt_data_end+0xfc000b2c>
    }
    else
    {
alt_up_pixel_buffer_dma_clear_screen (hPB, 0);
 4000b30:	000b883a 	mov	r5,zero
 4000b34:	e137c817 	ldw	r4,-8416(fp)
 4000b38:	40289c00 	call	40289c0 <alt_up_pixel_buffer_dma_clear_screen>
alt_up_pixel_buffer_dma_clear_screen (hPB, 1);
 4000b3c:	01400044 	movi	r5,1
 4000b40:	e137c817 	ldw	r4,-8416(fp)
 4000b44:	40289c00 	call	40289c0 <alt_up_pixel_buffer_dma_clear_screen>
    }

Delay_Long ();
 4000b48:	40002b40 	call	40002b4 <Delay_Long>
srand (IORD_ALTERA_AVALON_PIO_DATA (SWITCH_BASE));
 4000b4c:	008200b4 	movhi	r2,2050
 4000b50:	10843804 	addi	r2,r2,4320
 4000b54:	10800037 	ldwio	r2,0(r2)
 4000b58:	1009883a 	mov	r4,r2
 4000b5c:	40194d80 	call	40194d8 <srand>
draw(S, COLOR08_BLUE, 0, 0);
 4000b60:	000f883a 	mov	r7,zero
 4000b64:	000d883a 	mov	r6,zero
 4000b68:	014000c4 	movi	r5,3
 4000b6c:	010100f4 	movhi	r4,1027
 4000b70:	211b2a04 	addi	r4,r4,27816
 4000b74:	40003c80 	call	40003c8 <draw>
draw(C, COLOR08_BLUE, 1, 0);
 4000b78:	000f883a 	mov	r7,zero
 4000b7c:	01800044 	movi	r6,1
 4000b80:	014000c4 	movi	r5,3
 4000b84:	010100f4 	movhi	r4,1027
 4000b88:	21032a04 	addi	r4,r4,3240
 4000b8c:	40003c80 	call	40003c8 <draw>
draw(O, COLOR08_BLUE, 2, 0);
 4000b90:	000f883a 	mov	r7,zero
 4000b94:	01800084 	movi	r6,2
 4000b98:	014000c4 	movi	r5,3
 4000b9c:	010100f4 	movhi	r4,1027
 4000ba0:	21152a04 	addi	r4,r4,21672
 4000ba4:	40003c80 	call	40003c8 <draw>
draw(R, COLOR08_BLUE, 3, 0);
 4000ba8:	000f883a 	mov	r7,zero
 4000bac:	018000c4 	movi	r6,3
 4000bb0:	014000c4 	movi	r5,3
 4000bb4:	010100f4 	movhi	r4,1027
 4000bb8:	2119aa04 	addi	r4,r4,26280
 4000bbc:	40003c80 	call	40003c8 <draw>
draw(E, COLOR08_BLUE, 4, 0);
 4000bc0:	000f883a 	mov	r7,zero
 4000bc4:	01800104 	movi	r6,4
 4000bc8:	014000c4 	movi	r5,3
 4000bcc:	010100f4 	movhi	r4,1027
 4000bd0:	21062a04 	addi	r4,r4,6312
 4000bd4:	40003c80 	call	40003c8 <draw>
draw(zero, COLOR08_WHITE, 5, 0);//x000
 4000bd8:	000f883a 	mov	r7,zero
 4000bdc:	01800144 	movi	r6,5
 4000be0:	01403fc4 	movi	r5,255
 4000be4:	010100f4 	movhi	r4,1027
 4000be8:	21312a04 	addi	r4,r4,-15192
 4000bec:	40003c80 	call	40003c8 <draw>
draw(zero, COLOR08_WHITE, 6, 0);//0x00
 4000bf0:	000f883a 	mov	r7,zero
 4000bf4:	01800184 	movi	r6,6
 4000bf8:	01403fc4 	movi	r5,255
 4000bfc:	010100f4 	movhi	r4,1027
 4000c00:	21312a04 	addi	r4,r4,-15192
 4000c04:	40003c80 	call	40003c8 <draw>
draw(zero, COLOR08_WHITE, 7, 0);//00x0
 4000c08:	000f883a 	mov	r7,zero
 4000c0c:	018001c4 	movi	r6,7
 4000c10:	01403fc4 	movi	r5,255
 4000c14:	010100f4 	movhi	r4,1027
 4000c18:	21312a04 	addi	r4,r4,-15192
 4000c1c:	40003c80 	call	40003c8 <draw>
draw(zero, COLOR08_WHITE, 8, 0);//000x
 4000c20:	000f883a 	mov	r7,zero
 4000c24:	01800204 	movi	r6,8
 4000c28:	01403fc4 	movi	r5,255
 4000c2c:	010100f4 	movhi	r4,1027
 4000c30:	21312a04 	addi	r4,r4,-15192
 4000c34:	40003c80 	call	40003c8 <draw>
draw(M, COLOR08_GOLD, 8, 1);
 4000c38:	01c00044 	movi	r7,1
 4000c3c:	01800204 	movi	r6,8
 4000c40:	01403e04 	movi	r5,248
 4000c44:	010100f4 	movhi	r4,1027
 4000c48:	21122a04 	addi	r4,r4,18600
 4000c4c:	40003c80 	call	40003c8 <draw>
draw(P, COLOR08_GOLD, 9, 1);
 4000c50:	01c00044 	movi	r7,1
 4000c54:	01800244 	movi	r6,9
 4000c58:	01403e04 	movi	r5,248
 4000c5c:	010100f4 	movhi	r4,1027
 4000c60:	2116aa04 	addi	r4,r4,23208
 4000c64:	40003c80 	call	40003c8 <draw>
draw(X, COLOR08_GOLD, 0, 1);
 4000c68:	01c00044 	movi	r7,1
 4000c6c:	000d883a 	mov	r6,zero
 4000c70:	01403e04 	movi	r5,248
 4000c74:	01010134 	movhi	r4,1028
 4000c78:	2122aa04 	addi	r4,r4,-30040
 4000c7c:	40003c80 	call	40003c8 <draw>
draw(zero, COLOR08_GRAY, 1, 1);
 4000c80:	01c00044 	movi	r7,1
 4000c84:	01800044 	movi	r6,1
 4000c88:	01402484 	movi	r5,146
 4000c8c:	010100f4 	movhi	r4,1027
 4000c90:	21312a04 	addi	r4,r4,-15192
 4000c94:	40003c80 	call	40003c8 <draw>
draw(zero, COLOR08_GRAY, 2, 1);
 4000c98:	01c00044 	movi	r7,1
 4000c9c:	01800084 	movi	r6,2
 4000ca0:	01402484 	movi	r5,146
 4000ca4:	010100f4 	movhi	r4,1027
 4000ca8:	21312a04 	addi	r4,r4,-15192
 4000cac:	40003c80 	call	40003c8 <draw>
draw(Y, COLOR08_GOLD, 17, 1);
 4000cb0:	01c00044 	movi	r7,1
 4000cb4:	01800444 	movi	r6,17
 4000cb8:	01403e04 	movi	r5,248
 4000cbc:	01010134 	movhi	r4,1028
 4000cc0:	21242a04 	addi	r4,r4,-28504
 4000cc4:	40003c80 	call	40003c8 <draw>
draw(zero, COLOR08_GRAY, 18, 1);
 4000cc8:	01c00044 	movi	r7,1
 4000ccc:	01800484 	movi	r6,18
 4000cd0:	01402484 	movi	r5,146
 4000cd4:	010100f4 	movhi	r4,1027
 4000cd8:	21312a04 	addi	r4,r4,-15192
 4000cdc:	40003c80 	call	40003c8 <draw>
draw(zero, COLOR08_GRAY, 19, 1);
 4000ce0:	01c00044 	movi	r7,1
 4000ce4:	018004c4 	movi	r6,19
 4000ce8:	01402484 	movi	r5,146
 4000cec:	010100f4 	movhi	r4,1027
 4000cf0:	21312a04 	addi	r4,r4,-15192
 4000cf4:	40003c80 	call	40003c8 <draw>
draw(L, COLOR08_RED, 13, 0);
 4000cf8:	000f883a 	mov	r7,zero
 4000cfc:	01800344 	movi	r6,13
 4000d00:	01403804 	movi	r5,224
 4000d04:	010100f4 	movhi	r4,1027
 4000d08:	2110aa04 	addi	r4,r4,17064
 4000d0c:	40003c80 	call	40003c8 <draw>
draw(O, COLOR08_RED, 14, 0);
 4000d10:	000f883a 	mov	r7,zero
 4000d14:	01800384 	movi	r6,14
 4000d18:	01403804 	movi	r5,224
 4000d1c:	010100f4 	movhi	r4,1027
 4000d20:	21152a04 	addi	r4,r4,21672
 4000d24:	40003c80 	call	40003c8 <draw>
draw(A, COLOR08_RED, 15, 0);
 4000d28:	000f883a 	mov	r7,zero
 4000d2c:	018003c4 	movi	r6,15
 4000d30:	01403804 	movi	r5,224
 4000d34:	010100f4 	movhi	r4,1027
 4000d38:	21002a04 	addi	r4,r4,168
 4000d3c:	40003c80 	call	40003c8 <draw>
draw(D, COLOR08_RED, 16, 0);
 4000d40:	000f883a 	mov	r7,zero
 4000d44:	01800404 	movi	r6,16
 4000d48:	01403804 	movi	r5,224
 4000d4c:	010100f4 	movhi	r4,1027
 4000d50:	2104aa04 	addi	r4,r4,4776
 4000d54:	40003c80 	call	40003c8 <draw>
draw(I, COLOR08_RED, 17, 0);
 4000d58:	000f883a 	mov	r7,zero
 4000d5c:	01800444 	movi	r6,17
 4000d60:	01403804 	movi	r5,224
 4000d64:	010100f4 	movhi	r4,1027
 4000d68:	210c2a04 	addi	r4,r4,12456
 4000d6c:	40003c80 	call	40003c8 <draw>
draw(N, COLOR08_RED, 18, 0);
 4000d70:	000f883a 	mov	r7,zero
 4000d74:	01800484 	movi	r6,18
 4000d78:	01403804 	movi	r5,224
 4000d7c:	010100f4 	movhi	r4,1027
 4000d80:	2113aa04 	addi	r4,r4,20136
 4000d84:	40003c80 	call	40003c8 <draw>
draw(G, COLOR08_RED, 19, 0);
 4000d88:	000f883a 	mov	r7,zero
 4000d8c:	018004c4 	movi	r6,19
 4000d90:	01403804 	movi	r5,224
 4000d94:	010100f4 	movhi	r4,1027
 4000d98:	21092a04 	addi	r4,r4,9384
 4000d9c:	40003c80 	call	40003c8 <draw>
		Delay_Loading ();
 4000da0:	400026c0 	call	400026c <Delay_Loading>
		IOWR_ALTERA_AVALON_PIO_DATA (DIGITAL_CLOCK_RESET_BASE, 1);
 4000da4:	00c00044 	movi	r3,1
 4000da8:	008200b4 	movhi	r2,2050
 4000dac:	10840c04 	addi	r2,r2,4144
 4000db0:	10c00035 	stwio	r3,0(r2)
		IOWR_ALTERA_AVALON_PIO_DATA (DIGITAL_CLOCK_RESET_BASE, 0);
 4000db4:	0007883a 	mov	r3,zero
 4000db8:	008200b4 	movhi	r2,2050
 4000dbc:	10840c04 	addi	r2,r2,4144
 4000dc0:	10c00035 	stwio	r3,0(r2)
		draw(L, COLOR08_BLACK, 13, 0);
 4000dc4:	000f883a 	mov	r7,zero
 4000dc8:	01800344 	movi	r6,13
 4000dcc:	000b883a 	mov	r5,zero
 4000dd0:	010100f4 	movhi	r4,1027
 4000dd4:	2110aa04 	addi	r4,r4,17064
 4000dd8:	40003c80 	call	40003c8 <draw>
		draw(O, COLOR08_BLACK, 14, 0);
 4000ddc:	000f883a 	mov	r7,zero
 4000de0:	01800384 	movi	r6,14
 4000de4:	000b883a 	mov	r5,zero
 4000de8:	010100f4 	movhi	r4,1027
 4000dec:	21152a04 	addi	r4,r4,21672
 4000df0:	40003c80 	call	40003c8 <draw>
		draw(A, COLOR08_BLACK, 15, 0);
 4000df4:	000f883a 	mov	r7,zero
 4000df8:	018003c4 	movi	r6,15
 4000dfc:	000b883a 	mov	r5,zero
 4000e00:	010100f4 	movhi	r4,1027
 4000e04:	21002a04 	addi	r4,r4,168
 4000e08:	40003c80 	call	40003c8 <draw>
		draw(D, COLOR08_BLACK, 16, 0);
 4000e0c:	000f883a 	mov	r7,zero
 4000e10:	01800404 	movi	r6,16
 4000e14:	000b883a 	mov	r5,zero
 4000e18:	010100f4 	movhi	r4,1027
 4000e1c:	2104aa04 	addi	r4,r4,4776
 4000e20:	40003c80 	call	40003c8 <draw>
		draw(I, COLOR08_BLACK, 17, 0);
 4000e24:	000f883a 	mov	r7,zero
 4000e28:	01800444 	movi	r6,17
 4000e2c:	000b883a 	mov	r5,zero
 4000e30:	010100f4 	movhi	r4,1027
 4000e34:	210c2a04 	addi	r4,r4,12456
 4000e38:	40003c80 	call	40003c8 <draw>
		draw(N, COLOR08_BLACK, 18, 0);
 4000e3c:	000f883a 	mov	r7,zero
 4000e40:	01800484 	movi	r6,18
 4000e44:	000b883a 	mov	r5,zero
 4000e48:	010100f4 	movhi	r4,1027
 4000e4c:	2113aa04 	addi	r4,r4,20136
 4000e50:	40003c80 	call	40003c8 <draw>
		draw(G, COLOR08_BLACK, 19, 0);
 4000e54:	000f883a 	mov	r7,zero
 4000e58:	018004c4 	movi	r6,19
 4000e5c:	000b883a 	mov	r5,zero
 4000e60:	010100f4 	movhi	r4,1027
 4000e64:	21092a04 	addi	r4,r4,9384
 4000e68:	40003c80 	call	40003c8 <draw>



	draw1(dig_zero, COLOR08_RED, 29, 0);
 4000e6c:	e0bb3e04 	addi	r2,fp,-4872
 4000e70:	000f883a 	mov	r7,zero
 4000e74:	01800744 	movi	r6,29
 4000e78:	01403804 	movi	r5,224
 4000e7c:	1009883a 	mov	r4,r2
 4000e80:	40004cc0 	call	40004cc <draw1>
	draw1(dig_zero, COLOR08_RED, 30, 0);
 4000e84:	e0bb3e04 	addi	r2,fp,-4872
 4000e88:	000f883a 	mov	r7,zero
 4000e8c:	01800784 	movi	r6,30
 4000e90:	01403804 	movi	r5,224
 4000e94:	1009883a 	mov	r4,r2
 4000e98:	40004cc0 	call	40004cc <draw1>
	draw1(dig_col, COLOR08_RED, 31, 0);
 4000e9c:	e0bade04 	addi	r2,fp,-5256
 4000ea0:	000f883a 	mov	r7,zero
 4000ea4:	018007c4 	movi	r6,31
 4000ea8:	01403804 	movi	r5,224
 4000eac:	1009883a 	mov	r4,r2
 4000eb0:	40004cc0 	call	40004cc <draw1>
	draw1(dig_zero, COLOR08_RED, 32, 0);
 4000eb4:	e0bb3e04 	addi	r2,fp,-4872
 4000eb8:	000f883a 	mov	r7,zero
 4000ebc:	01800804 	movi	r6,32
 4000ec0:	01403804 	movi	r5,224
 4000ec4:	1009883a 	mov	r4,r2
 4000ec8:	40004cc0 	call	40004cc <draw1>
	draw1(dig_zero, COLOR08_RED, 33, 0);
 4000ecc:	e0bb3e04 	addi	r2,fp,-4872
 4000ed0:	000f883a 	mov	r7,zero
 4000ed4:	01800844 	movi	r6,33
 4000ed8:	01403804 	movi	r5,224
 4000edc:	1009883a 	mov	r4,r2
 4000ee0:	40004cc0 	call	40004cc <draw1>
	draw1(dig_col, COLOR08_RED, 34, 0);
 4000ee4:	e0bade04 	addi	r2,fp,-5256
 4000ee8:	000f883a 	mov	r7,zero
 4000eec:	01800884 	movi	r6,34
 4000ef0:	01403804 	movi	r5,224
 4000ef4:	1009883a 	mov	r4,r2
 4000ef8:	40004cc0 	call	40004cc <draw1>
	draw1(dig_zero, COLOR08_RED, 35, 0);
 4000efc:	e0bb3e04 	addi	r2,fp,-4872
 4000f00:	000f883a 	mov	r7,zero
 4000f04:	018008c4 	movi	r6,35
 4000f08:	01403804 	movi	r5,224
 4000f0c:	1009883a 	mov	r4,r2
 4000f10:	40004cc0 	call	40004cc <draw1>
	draw1(dig_zero, COLOR08_RED, 36, 0);
 4000f14:	e0bb3e04 	addi	r2,fp,-4872
 4000f18:	000f883a 	mov	r7,zero
 4000f1c:	01800904 	movi	r6,36
 4000f20:	01403804 	movi	r5,224
 4000f24:	1009883a 	mov	r4,r2
 4000f28:	40004cc0 	call	40004cc <draw1>
	draw1(dig_col, COLOR08_RED, 37, 0);
 4000f2c:	e0bade04 	addi	r2,fp,-5256
 4000f30:	000f883a 	mov	r7,zero
 4000f34:	01800944 	movi	r6,37
 4000f38:	01403804 	movi	r5,224
 4000f3c:	1009883a 	mov	r4,r2
 4000f40:	40004cc0 	call	40004cc <draw1>
	draw1(dig_zero, COLOR08_RED, 38, 0);
 4000f44:	e0bb3e04 	addi	r2,fp,-4872
 4000f48:	000f883a 	mov	r7,zero
 4000f4c:	01800984 	movi	r6,38
 4000f50:	01403804 	movi	r5,224
 4000f54:	1009883a 	mov	r4,r2
 4000f58:	40004cc0 	call	40004cc <draw1>
	draw1(dig_zero, COLOR08_RED, 39, 0);
 4000f5c:	e0bb3e04 	addi	r2,fp,-4872
 4000f60:	000f883a 	mov	r7,zero
 4000f64:	018009c4 	movi	r6,39
 4000f68:	01403804 	movi	r5,224
 4000f6c:	1009883a 	mov	r4,r2
 4000f70:	40004cc0 	call	40004cc <draw1>
	IOWR_ALTERA_AVALON_PIO_DATA (DIGITAL_CLOCK_RESET_BASE, 1);
 4000f74:	00c00044 	movi	r3,1
 4000f78:	008200b4 	movhi	r2,2050
 4000f7c:	10840c04 	addi	r2,r2,4144
 4000f80:	10c00035 	stwio	r3,0(r2)
	IOWR_ALTERA_AVALON_PIO_DATA (DIGITAL_CLOCK_RESET_BASE, 0);
 4000f84:	0007883a 	mov	r3,zero
 4000f88:	008200b4 	movhi	r2,2050
 4000f8c:	10840c04 	addi	r2,r2,4144
 4000f90:	10c00035 	stwio	r3,0(r2)
int nn;
int gameboard [8][20]={
 4000f94:	008100f4 	movhi	r2,1027
 4000f98:	10afbe04 	addi	r2,r2,-16648
 4000f9c:	e0ff5e04 	addi	r3,fp,-648
 4000fa0:	1009883a 	mov	r4,r2
 4000fa4:	0080a004 	movi	r2,640
 4000fa8:	100d883a 	mov	r6,r2
 4000fac:	200b883a 	mov	r5,r4
 4000fb0:	1809883a 	mov	r4,r3
 4000fb4:	40191280 	call	4019128 <memcpy>
{-1,-1,-1,-1,-1,-1,-1,-1,-1,-1,-1,-1,-1,-1,-1,-1,-1,-1,-1,-1},
{-1,-1,-1,-1,-1,-1,-1,-1,-1,-1,-1,-1,-1,-1,-1,-1,-1,-1,-1,-1},
{-1,-1,-1,-1,-1,-1,-1,-1,-1,-1,-1,-1,-1,-1,-1,-1,-1,-1,-1,-1},
{-1,-1,-1,-1,-1,-1,-1,-1,-1,-1,-1,-1,-1,-1,-1,-1,-1,-1,-1,-1},
};
int k = 5;
 4000fb8:	00800144 	movi	r2,5
 4000fbc:	e0b7c915 	stw	r2,-8412(fp)
for (y=2; y<10; y++)
 4000fc0:	00800084 	movi	r2,2
 4000fc4:	e0b7c215 	stw	r2,-8440(fp)
 4000fc8:	00007806 	br	40011ac <main+0xbd8>
{
for (x=0; x<20; x++)
 4000fcc:	e037c115 	stw	zero,-8444(fp)
 4000fd0:	00007006 	br	4001194 <main+0xbc0>
{
nn = rand()%k;
 4000fd4:	40194f00 	call	40194f0 <rand>
 4000fd8:	e177c917 	ldw	r5,-8412(fp)
 4000fdc:	1009883a 	mov	r4,r2
 4000fe0:	4018fd00 	call	4018fd0 <__modsi3>
 4000fe4:	e0b7ca15 	stw	r2,-8408(fp)
gameboard [y-2][x] =nn;
 4000fe8:	e0b7c217 	ldw	r2,-8440(fp)
 4000fec:	10bfff84 	addi	r2,r2,-2
 4000ff0:	01400504 	movi	r5,20
 4000ff4:	1009883a 	mov	r4,r2
 4000ff8:	40191000 	call	4019100 <__mulsi3>
 4000ffc:	1007883a 	mov	r3,r2
 4001000:	e0b7c117 	ldw	r2,-8444(fp)
 4001004:	1885883a 	add	r2,r3,r2
 4001008:	1085883a 	add	r2,r2,r2
 400100c:	1085883a 	add	r2,r2,r2
 4001010:	e0f7c104 	addi	r3,fp,-8444
 4001014:	1885883a 	add	r2,r3,r2
 4001018:	10879d04 	addi	r2,r2,7796
 400101c:	e0f7ca17 	ldw	r3,-8408(fp)
 4001020:	10c00015 	stw	r3,0(r2)
if (nn == 0)
 4001024:	e0b7ca17 	ldw	r2,-8408(fp)
 4001028:	1000061e 	bne	r2,zero,4001044 <main+0xa70>
{
	draw(zero, COLOR08_CYAN, x, y);
 400102c:	e1f7c217 	ldw	r7,-8440(fp)
 4001030:	e1b7c117 	ldw	r6,-8444(fp)
 4001034:	014007c4 	movi	r5,31
 4001038:	010100f4 	movhi	r4,1027
 400103c:	21312a04 	addi	r4,r4,-15192
 4001040:	40003c80 	call	40003c8 <draw>
}
if (nn == 1)
 4001044:	e0b7ca17 	ldw	r2,-8408(fp)
 4001048:	10800058 	cmpnei	r2,r2,1
 400104c:	1000061e 	bne	r2,zero,4001068 <main+0xa94>
{
	draw(one, COLOR08_GREEN , x, y);
 4001050:	e1f7c217 	ldw	r7,-8440(fp)
 4001054:	e1b7c117 	ldw	r6,-8444(fp)
 4001058:	01400404 	movi	r5,16
 400105c:	010100f4 	movhi	r4,1027
 4001060:	2132aa04 	addi	r4,r4,-13656
 4001064:	40003c80 	call	40003c8 <draw>
}
if (nn == 2)
 4001068:	e0b7ca17 	ldw	r2,-8408(fp)
 400106c:	10800098 	cmpnei	r2,r2,2
 4001070:	1000061e 	bne	r2,zero,400108c <main+0xab8>
{
	draw(two, COLOR08_MAGENTA , x, y);
 4001074:	e1f7c217 	ldw	r7,-8440(fp)
 4001078:	e1b7c117 	ldw	r6,-8444(fp)
 400107c:	014038c4 	movi	r5,227
 4001080:	010100f4 	movhi	r4,1027
 4001084:	21342a04 	addi	r4,r4,-12120
 4001088:	40003c80 	call	40003c8 <draw>
}
if (nn == 3)
 400108c:	e0b7ca17 	ldw	r2,-8408(fp)
 4001090:	108000d8 	cmpnei	r2,r2,3
 4001094:	1000061e 	bne	r2,zero,40010b0 <main+0xadc>
{
	draw(three, COLOR08_PURPLE, x, y);
 4001098:	e1f7c217 	ldw	r7,-8440(fp)
 400109c:	e1b7c117 	ldw	r6,-8444(fp)
 40010a0:	01402084 	movi	r5,130
 40010a4:	010100f4 	movhi	r4,1027
 40010a8:	2135aa04 	addi	r4,r4,-10584
 40010ac:	40003c80 	call	40003c8 <draw>
}
if (nn == 4)
 40010b0:	e0b7ca17 	ldw	r2,-8408(fp)
 40010b4:	10800118 	cmpnei	r2,r2,4
 40010b8:	1000061e 	bne	r2,zero,40010d4 <main+0xb00>
{
	draw(four, COLOR08_GOLD, x, y);
 40010bc:	e1f7c217 	ldw	r7,-8440(fp)
 40010c0:	e1b7c117 	ldw	r6,-8444(fp)
 40010c4:	01403e04 	movi	r5,248
 40010c8:	010100f4 	movhi	r4,1027
 40010cc:	21372a04 	addi	r4,r4,-9048
 40010d0:	40003c80 	call	40003c8 <draw>
}
if (nn == 5)
 40010d4:	e0b7ca17 	ldw	r2,-8408(fp)
 40010d8:	10800158 	cmpnei	r2,r2,5
 40010dc:	1000061e 	bne	r2,zero,40010f8 <main+0xb24>
{
	draw(five, COLOR08_ORANGE, x, y);
 40010e0:	e1f7c217 	ldw	r7,-8440(fp)
 40010e4:	e1b7c117 	ldw	r6,-8444(fp)
 40010e8:	01403d04 	movi	r5,244
 40010ec:	010100f4 	movhi	r4,1027
 40010f0:	2138aa04 	addi	r4,r4,-7512
 40010f4:	40003c80 	call	40003c8 <draw>
}
if (nn == 6)
 40010f8:	e0b7ca17 	ldw	r2,-8408(fp)
 40010fc:	10800198 	cmpnei	r2,r2,6
 4001100:	1000061e 	bne	r2,zero,400111c <main+0xb48>
{
	draw(six, COLOR08_ROYALBLUE, x, y);
 4001104:	e1f7c217 	ldw	r7,-8440(fp)
 4001108:	e1b7c117 	ldw	r6,-8444(fp)
 400110c:	014013c4 	movi	r5,79
 4001110:	010100f4 	movhi	r4,1027
 4001114:	213a2a04 	addi	r4,r4,-5976
 4001118:	40003c80 	call	40003c8 <draw>
}
if (nn == 7)
 400111c:	e0b7ca17 	ldw	r2,-8408(fp)
 4001120:	108001d8 	cmpnei	r2,r2,7
 4001124:	1000061e 	bne	r2,zero,4001140 <main+0xb6c>
{
	draw(seven, COLOR08_CRIMSON, x, y);
 4001128:	e1f7c217 	ldw	r7,-8440(fp)
 400112c:	e1b7c117 	ldw	r6,-8444(fp)
 4001130:	01403004 	movi	r5,192
 4001134:	010100f4 	movhi	r4,1027
 4001138:	213baa04 	addi	r4,r4,-4440
 400113c:	40003c80 	call	40003c8 <draw>
}
if (nn == 8)
 4001140:	e0b7ca17 	ldw	r2,-8408(fp)
 4001144:	10800218 	cmpnei	r2,r2,8
 4001148:	1000061e 	bne	r2,zero,4001164 <main+0xb90>
{
	draw(eight, COLOR08_BLUE, x, y);
 400114c:	e1f7c217 	ldw	r7,-8440(fp)
 4001150:	e1b7c117 	ldw	r6,-8444(fp)
 4001154:	014000c4 	movi	r5,3
 4001158:	010100f4 	movhi	r4,1027
 400115c:	213d2a04 	addi	r4,r4,-2904
 4001160:	40003c80 	call	40003c8 <draw>
}
if (nn == 9)
 4001164:	e0b7ca17 	ldw	r2,-8408(fp)
 4001168:	10800258 	cmpnei	r2,r2,9
 400116c:	1000061e 	bne	r2,zero,4001188 <main+0xbb4>
{
	draw(nine, COLOR08_INDIGO, x, y);
 4001170:	e1f7c217 	ldw	r7,-8440(fp)
 4001174:	e1b7c117 	ldw	r6,-8444(fp)
 4001178:	01400884 	movi	r5,34
 400117c:	010100f4 	movhi	r4,1027
 4001180:	213eaa04 	addi	r4,r4,-1368
 4001184:	40003c80 	call	40003c8 <draw>
{-1,-1,-1,-1,-1,-1,-1,-1,-1,-1,-1,-1,-1,-1,-1,-1,-1,-1,-1,-1},
};
int k = 5;
for (y=2; y<10; y++)
{
for (x=0; x<20; x++)
 4001188:	e0b7c117 	ldw	r2,-8444(fp)
 400118c:	10800044 	addi	r2,r2,1
 4001190:	e0b7c115 	stw	r2,-8444(fp)
 4001194:	e0b7c117 	ldw	r2,-8444(fp)
 4001198:	10800510 	cmplti	r2,r2,20
 400119c:	103f8d1e 	bne	r2,zero,4000fd4 <__alt_data_end+0xfc000fd4>
{-1,-1,-1,-1,-1,-1,-1,-1,-1,-1,-1,-1,-1,-1,-1,-1,-1,-1,-1,-1},
{-1,-1,-1,-1,-1,-1,-1,-1,-1,-1,-1,-1,-1,-1,-1,-1,-1,-1,-1,-1},
{-1,-1,-1,-1,-1,-1,-1,-1,-1,-1,-1,-1,-1,-1,-1,-1,-1,-1,-1,-1},
};
int k = 5;
for (y=2; y<10; y++)
 40011a0:	e0b7c217 	ldw	r2,-8440(fp)
 40011a4:	10800044 	addi	r2,r2,1
 40011a8:	e0b7c215 	stw	r2,-8440(fp)
 40011ac:	e0b7c217 	ldw	r2,-8440(fp)
 40011b0:	10800290 	cmplti	r2,r2,10
 40011b4:	103f851e 	bne	r2,zero,4000fcc <__alt_data_end+0xfc000fcc>
}

}

}
int sec=0;
 40011b8:	e037cb15 	stw	zero,-8404(fp)
int min=0;
 40011bc:	e037cc15 	stw	zero,-8400(fp)
int hour=0;
 40011c0:	e037cd15 	stw	zero,-8396(fp)
int day=0;
 40011c4:	e037ce15 	stw	zero,-8392(fp)

int sec_a=0;
 40011c8:	e037cf15 	stw	zero,-8388(fp)
int sec_b=0;
 40011cc:	e037d015 	stw	zero,-8384(fp)

int min_a=0;
 40011d0:	e037d115 	stw	zero,-8380(fp)
int min_b=0;
 40011d4:	e037d215 	stw	zero,-8376(fp)

int hour_a=0;
 40011d8:	e037d315 	stw	zero,-8372(fp)
int hour_b=0;
 40011dc:	e037d415 	stw	zero,-8368(fp)

int day_a=0;
 40011e0:	e037d515 	stw	zero,-8364(fp)
int day_b=0;
 40011e4:	e037d615 	stw	zero,-8360(fp)

int ct=0;
 40011e8:	e037c415 	stw	zero,-8432(fp)
int q=1000000;
 40011ec:	008003f4 	movhi	r2,15
 40011f0:	10909004 	addi	r2,r2,16960
 40011f4:	e0b7d715 	stw	r2,-8356(fp)
int f;
int t,w,r;
int button;
int clk=0;
 40011f8:	e037c615 	stw	zero,-8424(fp)
int pause=0;
 40011fc:	e037c715 	stw	zero,-8420(fp)
int key1;

int time=600;//amount of seconds till game over
 4001200:	00809604 	movi	r2,600
 4001204:	e0b7d815 	stw	r2,-8352(fp)
	printf("%u \n",IORD_ALTERA_AVALON_PIO_DATA(DIGITAL_CLOCK_BASE));
}
*/
//right

for(f=0;f<100000;f++)
 4001208:	e037c515 	stw	zero,-8428(fp)
 400120c:	4018f181 	jmpi	4018f18 <main+0x18944>
{
q=ct;
 4001210:	e0b7c417 	ldw	r2,-8432(fp)
 4001214:	e0b7d715 	stw	r2,-8356(fp)
	for(x=0;x<18;)
 4001218:	e037c115 	stw	zero,-8444(fp)
 400121c:	40157701 	jmpi	4015770 <main+0x1519c>
{
	for(y=0;y<8;)
 4001220:	e037c215 	stw	zero,-8440(fp)
 4001224:	40157601 	jmpi	4015760 <main+0x1518c>
	{
		printf("clk: %i \n",clk);
 4001228:	e177c617 	ldw	r5,-8424(fp)
 400122c:	010100f4 	movhi	r4,1027
 4001230:	212a7204 	addi	r4,r4,-22072
 4001234:	40193c80 	call	40193c8 <printf>
		if(clk==time)
 4001238:	e0f7c617 	ldw	r3,-8424(fp)
 400123c:	e0b7d817 	ldw	r2,-8352(fp)
 4001240:	1880691e 	bne	r3,r2,40013e8 <main+0xe14>
		{
			draw(white, COLOR08_BLACK, 11, 0);
 4001244:	e0b95e04 	addi	r2,fp,-6792
 4001248:	000f883a 	mov	r7,zero
 400124c:	018002c4 	movi	r6,11
 4001250:	000b883a 	mov	r5,zero
 4001254:	1009883a 	mov	r4,r2
 4001258:	40003c80 	call	40003c8 <draw>
			draw(G, COLOR08_RED, 11, 0);
 400125c:	000f883a 	mov	r7,zero
 4001260:	018002c4 	movi	r6,11
 4001264:	01403804 	movi	r5,224
 4001268:	010100f4 	movhi	r4,1027
 400126c:	21092a04 	addi	r4,r4,9384
 4001270:	40003c80 	call	40003c8 <draw>
			draw(white, COLOR08_BLACK, 12, 0);
 4001274:	e0b95e04 	addi	r2,fp,-6792
 4001278:	000f883a 	mov	r7,zero
 400127c:	01800304 	movi	r6,12
 4001280:	000b883a 	mov	r5,zero
 4001284:	1009883a 	mov	r4,r2
 4001288:	40003c80 	call	40003c8 <draw>
			draw(A, COLOR08_RED, 12, 0);
 400128c:	000f883a 	mov	r7,zero
 4001290:	01800304 	movi	r6,12
 4001294:	01403804 	movi	r5,224
 4001298:	010100f4 	movhi	r4,1027
 400129c:	21002a04 	addi	r4,r4,168
 40012a0:	40003c80 	call	40003c8 <draw>
			draw(white, COLOR08_BLACK, 13, 0);
 40012a4:	e0b95e04 	addi	r2,fp,-6792
 40012a8:	000f883a 	mov	r7,zero
 40012ac:	01800344 	movi	r6,13
 40012b0:	000b883a 	mov	r5,zero
 40012b4:	1009883a 	mov	r4,r2
 40012b8:	40003c80 	call	40003c8 <draw>
			draw(M, COLOR08_RED, 13, 0);
 40012bc:	000f883a 	mov	r7,zero
 40012c0:	01800344 	movi	r6,13
 40012c4:	01403804 	movi	r5,224
 40012c8:	010100f4 	movhi	r4,1027
 40012cc:	21122a04 	addi	r4,r4,18600
 40012d0:	40003c80 	call	40003c8 <draw>
			draw(white, COLOR08_BLACK, 14, 0);
 40012d4:	e0b95e04 	addi	r2,fp,-6792
 40012d8:	000f883a 	mov	r7,zero
 40012dc:	01800384 	movi	r6,14
 40012e0:	000b883a 	mov	r5,zero
 40012e4:	1009883a 	mov	r4,r2
 40012e8:	40003c80 	call	40003c8 <draw>
			draw(E, COLOR08_RED, 14, 0);
 40012ec:	000f883a 	mov	r7,zero
 40012f0:	01800384 	movi	r6,14
 40012f4:	01403804 	movi	r5,224
 40012f8:	010100f4 	movhi	r4,1027
 40012fc:	21062a04 	addi	r4,r4,6312
 4001300:	40003c80 	call	40003c8 <draw>

			draw(white, COLOR08_BLACK, 15, 0);
 4001304:	e0b95e04 	addi	r2,fp,-6792
 4001308:	000f883a 	mov	r7,zero
 400130c:	018003c4 	movi	r6,15
 4001310:	000b883a 	mov	r5,zero
 4001314:	1009883a 	mov	r4,r2
 4001318:	40003c80 	call	40003c8 <draw>

			draw(white, COLOR08_BLACK, 16, 0);
 400131c:	e0b95e04 	addi	r2,fp,-6792
 4001320:	000f883a 	mov	r7,zero
 4001324:	01800404 	movi	r6,16
 4001328:	000b883a 	mov	r5,zero
 400132c:	1009883a 	mov	r4,r2
 4001330:	40003c80 	call	40003c8 <draw>
			draw(O, COLOR08_RED, 16, 0);
 4001334:	000f883a 	mov	r7,zero
 4001338:	01800404 	movi	r6,16
 400133c:	01403804 	movi	r5,224
 4001340:	010100f4 	movhi	r4,1027
 4001344:	21152a04 	addi	r4,r4,21672
 4001348:	40003c80 	call	40003c8 <draw>
			draw(white, COLOR08_BLACK, 17, 0);
 400134c:	e0b95e04 	addi	r2,fp,-6792
 4001350:	000f883a 	mov	r7,zero
 4001354:	01800444 	movi	r6,17
 4001358:	000b883a 	mov	r5,zero
 400135c:	1009883a 	mov	r4,r2
 4001360:	40003c80 	call	40003c8 <draw>
			draw(V, COLOR08_RED, 17, 0);
 4001364:	000f883a 	mov	r7,zero
 4001368:	01800444 	movi	r6,17
 400136c:	01403804 	movi	r5,224
 4001370:	010100f4 	movhi	r4,1027
 4001374:	211faa04 	addi	r4,r4,32424
 4001378:	40003c80 	call	40003c8 <draw>
			draw(white, COLOR08_BLACK, 18, 0);
 400137c:	e0b95e04 	addi	r2,fp,-6792
 4001380:	000f883a 	mov	r7,zero
 4001384:	01800484 	movi	r6,18
 4001388:	000b883a 	mov	r5,zero
 400138c:	1009883a 	mov	r4,r2
 4001390:	40003c80 	call	40003c8 <draw>
			draw(E, COLOR08_RED, 18, 0);
 4001394:	000f883a 	mov	r7,zero
 4001398:	01800484 	movi	r6,18
 400139c:	01403804 	movi	r5,224
 40013a0:	010100f4 	movhi	r4,1027
 40013a4:	21062a04 	addi	r4,r4,6312
 40013a8:	40003c80 	call	40003c8 <draw>
			draw(white, COLOR08_BLACK, 19, 0);
 40013ac:	e0b95e04 	addi	r2,fp,-6792
 40013b0:	000f883a 	mov	r7,zero
 40013b4:	018004c4 	movi	r6,19
 40013b8:	000b883a 	mov	r5,zero
 40013bc:	1009883a 	mov	r4,r2
 40013c0:	40003c80 	call	40003c8 <draw>
			draw(R, COLOR08_RED, 19, 0);
 40013c4:	000f883a 	mov	r7,zero
 40013c8:	018004c4 	movi	r6,19
 40013cc:	01403804 	movi	r5,224
 40013d0:	010100f4 	movhi	r4,1027
 40013d4:	2119aa04 	addi	r4,r4,26280
 40013d8:	40003c80 	call	40003c8 <draw>
			clk=time+1;
 40013dc:	e0b7d817 	ldw	r2,-8352(fp)
 40013e0:	10800044 	addi	r2,r2,1
 40013e4:	e0b7c615 	stw	r2,-8424(fp)
		}


		if(clk < time)
 40013e8:	e0f7c617 	ldw	r3,-8424(fp)
 40013ec:	e0b7d817 	ldw	r2,-8352(fp)
 40013f0:	18800116 	blt	r3,r2,40013f8 <main+0xe24>
 40013f4:	40157601 	jmpi	4015760 <main+0x1518c>
		{
		key1=IORD_ALTERA_AVALON_PIO_DATA(KEY1_BASE);
 40013f8:	008200b4 	movhi	r2,2050
 40013fc:	10840804 	addi	r2,r2,4128
 4001400:	10800037 	ldwio	r2,0(r2)
 4001404:	e0b7d915 	stw	r2,-8348(fp)

		if(key1==0)
 4001408:	e0b7d917 	ldw	r2,-8348(fp)
 400140c:	1000041e 	bne	r2,zero,4001420 <main+0xe4c>
		{
			pause++;
 4001410:	e0b7c717 	ldw	r2,-8420(fp)
 4001414:	10800044 	addi	r2,r2,1
 4001418:	e0b7c715 	stw	r2,-8420(fp)
			Delay_Short();
 400141c:	40003440 	call	4000344 <Delay_Short>
		}

		if(pause%2==0)
 4001420:	e0b7c717 	ldw	r2,-8420(fp)
 4001424:	1080004c 	andi	r2,r2,1
 4001428:	1000041e 	bne	r2,zero,400143c <main+0xe68>
		{
			IOWR_ALTERA_AVALON_PIO_DATA (DIGITAL_CLOCK_PAUSE_BASE, 1);
 400142c:	00c00044 	movi	r3,1
 4001430:	008200b4 	movhi	r2,2050
 4001434:	10841004 	addi	r2,r2,4160
 4001438:	10c00035 	stwio	r3,0(r2)
			//printf("not paused \n");

		}
		if(pause%2==1)
 400143c:	e0f7c717 	ldw	r3,-8420(fp)
 4001440:	00a00034 	movhi	r2,32768
 4001444:	10800044 	addi	r2,r2,1
 4001448:	1884703a 	and	r2,r3,r2
 400144c:	1000040e 	bge	r2,zero,4001460 <main+0xe8c>
 4001450:	10bfffc4 	addi	r2,r2,-1
 4001454:	00ffff84 	movi	r3,-2
 4001458:	10c4b03a 	or	r2,r2,r3
 400145c:	10800044 	addi	r2,r2,1
 4001460:	10800058 	cmpnei	r2,r2,1
 4001464:	1000041e 	bne	r2,zero,4001478 <main+0xea4>
		{
			IOWR_ALTERA_AVALON_PIO_DATA (DIGITAL_CLOCK_PAUSE_BASE, 0);
 4001468:	0007883a 	mov	r3,zero
 400146c:	008200b4 	movhi	r2,2050
 4001470:	10841004 	addi	r2,r2,4160
 4001474:	10c00035 	stwio	r3,0(r2)
		{
			printf("not pressed \n");
		}
		*/

		if(y==0)//top
 4001478:	e0b7c217 	ldw	r2,-8440(fp)
 400147c:	1000081e 	bne	r2,zero,40014a0 <main+0xecc>
		{
		draw(square, COLOR08_RED, x,y+2);
 4001480:	e0b7c217 	ldw	r2,-8440(fp)
 4001484:	10c00084 	addi	r3,r2,2
 4001488:	e0b7de04 	addi	r2,fp,-8328
 400148c:	180f883a 	mov	r7,r3
 4001490:	e1b7c117 	ldw	r6,-8444(fp)
 4001494:	01403804 	movi	r5,224
 4001498:	1009883a 	mov	r4,r2
 400149c:	40003c80 	call	40003c8 <draw>
		}

		if(y==7)//bottom
 40014a0:	e0b7c217 	ldw	r2,-8440(fp)
 40014a4:	108001d8 	cmpnei	r2,r2,7
 40014a8:	1000081e 	bne	r2,zero,40014cc <main+0xef8>
		{
		draw(square, COLOR08_RED, x,y+2);
 40014ac:	e0b7c217 	ldw	r2,-8440(fp)
 40014b0:	10c00084 	addi	r3,r2,2
 40014b4:	e0b7de04 	addi	r2,fp,-8328
 40014b8:	180f883a 	mov	r7,r3
 40014bc:	e1b7c117 	ldw	r6,-8444(fp)
 40014c0:	01403804 	movi	r5,224
 40014c4:	1009883a 	mov	r4,r2
 40014c8:	40003c80 	call	40003c8 <draw>
		}

		if(x==0)//left
 40014cc:	e0b7c117 	ldw	r2,-8444(fp)
 40014d0:	1000081e 	bne	r2,zero,40014f4 <main+0xf20>
		{
		draw(square, COLOR08_RED, x,y+2);
 40014d4:	e0b7c217 	ldw	r2,-8440(fp)
 40014d8:	10c00084 	addi	r3,r2,2
 40014dc:	e0b7de04 	addi	r2,fp,-8328
 40014e0:	180f883a 	mov	r7,r3
 40014e4:	e1b7c117 	ldw	r6,-8444(fp)
 40014e8:	01403804 	movi	r5,224
 40014ec:	1009883a 	mov	r4,r2
 40014f0:	40003c80 	call	40003c8 <draw>
		}

		if(x==19)//right
 40014f4:	e0b7c117 	ldw	r2,-8444(fp)
 40014f8:	108004d8 	cmpnei	r2,r2,19
 40014fc:	1000081e 	bne	r2,zero,4001520 <main+0xf4c>
		{
		draw(square, COLOR08_RED, x,y+2);
 4001500:	e0b7c217 	ldw	r2,-8440(fp)
 4001504:	10c00084 	addi	r3,r2,2
 4001508:	e0b7de04 	addi	r2,fp,-8328
 400150c:	180f883a 	mov	r7,r3
 4001510:	e1b7c117 	ldw	r6,-8444(fp)
 4001514:	01403804 	movi	r5,224
 4001518:	1009883a 	mov	r4,r2
 400151c:	40003c80 	call	40003c8 <draw>
		}


		if(x>0 && x<19 )//middle
 4001520:	e0b7c117 	ldw	r2,-8444(fp)
 4001524:	0080100e 	bge	zero,r2,4001568 <main+0xf94>
 4001528:	e0b7c117 	ldw	r2,-8444(fp)
 400152c:	108004c8 	cmpgei	r2,r2,19
 4001530:	10000d1e 	bne	r2,zero,4001568 <main+0xf94>
		{
			if(y>0 && y<7)
 4001534:	e0b7c217 	ldw	r2,-8440(fp)
 4001538:	00800b0e 	bge	zero,r2,4001568 <main+0xf94>
 400153c:	e0b7c217 	ldw	r2,-8440(fp)
 4001540:	108001c8 	cmpgei	r2,r2,7
 4001544:	1000081e 	bne	r2,zero,4001568 <main+0xf94>
			{
				draw(square, COLOR08_WHITE, x,y+2);
 4001548:	e0b7c217 	ldw	r2,-8440(fp)
 400154c:	10c00084 	addi	r3,r2,2
 4001550:	e0b7de04 	addi	r2,fp,-8328
 4001554:	180f883a 	mov	r7,r3
 4001558:	e1b7c117 	ldw	r6,-8444(fp)
 400155c:	01403fc4 	movi	r5,255
 4001560:	1009883a 	mov	r4,r2
 4001564:	40003c80 	call	40003c8 <draw>
			}
		}
		IOWR_ALTERA_AVALON_PIO_DATA (KEY_READ_REQ_BASE, 0);
 4001568:	0007883a 	mov	r3,zero
 400156c:	008200b4 	movhi	r2,2050
 4001570:	10841804 	addi	r2,r2,4192
 4001574:	10c00035 	stwio	r3,0(r2)
		IOWR_ALTERA_AVALON_PIO_DATA (KEY_READ_REQ_BASE, 1);
 4001578:	00c00044 	movi	r3,1
 400157c:	008200b4 	movhi	r2,2050
 4001580:	10841804 	addi	r2,r2,4192
 4001584:	10c00035 	stwio	r3,0(r2)
		Delay_Pulse();
 4001588:	40003880 	call	4000388 <Delay_Pulse>
		button=IORD_ALTERA_AVALON_PIO_DATA(KEY_UDLRM_ENCODER_BASE);
 400158c:	008200b4 	movhi	r2,2050
 4001590:	10841c04 	addi	r2,r2,4208
 4001594:	10800037 	ldwio	r2,0(r2)
 4001598:	e0b7da15 	stw	r2,-8344(fp)

		IOWR_ALTERA_AVALON_PIO_DATA (KEY_READ_REQ_BASE, 0);
 400159c:	0007883a 	mov	r3,zero
 40015a0:	008200b4 	movhi	r2,2050
 40015a4:	10841804 	addi	r2,r2,4192
 40015a8:	10c00035 	stwio	r3,0(r2)

		if(button==0 || button==1 || button==2 || button==3 || button==4 || button==5 || button==6)
 40015ac:	e0b7da17 	ldw	r2,-8344(fp)
 40015b0:	10001226 	beq	r2,zero,40015fc <main+0x1028>
 40015b4:	e0b7da17 	ldw	r2,-8344(fp)
 40015b8:	10800060 	cmpeqi	r2,r2,1
 40015bc:	10000f1e 	bne	r2,zero,40015fc <main+0x1028>
 40015c0:	e0b7da17 	ldw	r2,-8344(fp)
 40015c4:	108000a0 	cmpeqi	r2,r2,2
 40015c8:	10000c1e 	bne	r2,zero,40015fc <main+0x1028>
 40015cc:	e0b7da17 	ldw	r2,-8344(fp)
 40015d0:	108000e0 	cmpeqi	r2,r2,3
 40015d4:	1000091e 	bne	r2,zero,40015fc <main+0x1028>
 40015d8:	e0b7da17 	ldw	r2,-8344(fp)
 40015dc:	10800120 	cmpeqi	r2,r2,4
 40015e0:	1000061e 	bne	r2,zero,40015fc <main+0x1028>
 40015e4:	e0b7da17 	ldw	r2,-8344(fp)
 40015e8:	10800160 	cmpeqi	r2,r2,5
 40015ec:	1000031e 	bne	r2,zero,40015fc <main+0x1028>
 40015f0:	e0b7da17 	ldw	r2,-8344(fp)
 40015f4:	10800198 	cmpnei	r2,r2,6
 40015f8:	1004f21e 	bne	r2,zero,40029c4 <main+0x23f0>
		{
			clk = IORD_ALTERA_AVALON_PIO_DATA(DIGITAL_CLOCK_BASE);
 40015fc:	008200b4 	movhi	r2,2050
 4001600:	10841404 	addi	r2,r2,4176
 4001604:	10800037 	ldwio	r2,0(r2)
 4001608:	e0b7c615 	stw	r2,-8424(fp)

			sec = clk%60;
 400160c:	e0b7c617 	ldw	r2,-8424(fp)
 4001610:	01400f04 	movi	r5,60
 4001614:	1009883a 	mov	r4,r2
 4001618:	4018fd00 	call	4018fd0 <__modsi3>
 400161c:	e0b7cb15 	stw	r2,-8404(fp)
			min = (clk/60)%60;
 4001620:	e0b7c617 	ldw	r2,-8424(fp)
 4001624:	01400f04 	movi	r5,60
 4001628:	1009883a 	mov	r4,r2
 400162c:	4018f4c0 	call	4018f4c <__divsi3>
 4001630:	01400f04 	movi	r5,60
 4001634:	1009883a 	mov	r4,r2
 4001638:	4018fd00 	call	4018fd0 <__modsi3>
 400163c:	e0b7cc15 	stw	r2,-8400(fp)
			hour = ((clk/60)/60)%24;
 4001640:	e0b7c617 	ldw	r2,-8424(fp)
 4001644:	01438404 	movi	r5,3600
 4001648:	1009883a 	mov	r4,r2
 400164c:	4018f4c0 	call	4018f4c <__divsi3>
 4001650:	01400604 	movi	r5,24
 4001654:	1009883a 	mov	r4,r2
 4001658:	4018fd00 	call	4018fd0 <__modsi3>
 400165c:	e0b7cd15 	stw	r2,-8396(fp)
			day =  (((clk/60)/60)/24)%100;
 4001660:	e0b7c617 	ldw	r2,-8424(fp)
 4001664:	01400074 	movhi	r5,1
 4001668:	29546004 	addi	r5,r5,20864
 400166c:	1009883a 	mov	r4,r2
 4001670:	4018f4c0 	call	4018f4c <__divsi3>
 4001674:	01401904 	movi	r5,100
 4001678:	1009883a 	mov	r4,r2
 400167c:	4018fd00 	call	4018fd0 <__modsi3>
 4001680:	e0b7ce15 	stw	r2,-8392(fp)
			sec_a = sec/10;
 4001684:	e0b7cb17 	ldw	r2,-8404(fp)
 4001688:	01400284 	movi	r5,10
 400168c:	1009883a 	mov	r4,r2
 4001690:	4018f4c0 	call	4018f4c <__divsi3>
 4001694:	e0b7cf15 	stw	r2,-8388(fp)
			sec_b = sec%10;
 4001698:	e0b7cb17 	ldw	r2,-8404(fp)
 400169c:	01400284 	movi	r5,10
 40016a0:	1009883a 	mov	r4,r2
 40016a4:	4018fd00 	call	4018fd0 <__modsi3>
 40016a8:	e0b7d015 	stw	r2,-8384(fp)
			min_a = min/10;
 40016ac:	e0b7cc17 	ldw	r2,-8400(fp)
 40016b0:	01400284 	movi	r5,10
 40016b4:	1009883a 	mov	r4,r2
 40016b8:	4018f4c0 	call	4018f4c <__divsi3>
 40016bc:	e0b7d115 	stw	r2,-8380(fp)
			min_b = min%10;
 40016c0:	e0b7cc17 	ldw	r2,-8400(fp)
 40016c4:	01400284 	movi	r5,10
 40016c8:	1009883a 	mov	r4,r2
 40016cc:	4018fd00 	call	4018fd0 <__modsi3>
 40016d0:	e0b7d215 	stw	r2,-8376(fp)
			hour_a = hour/10;
 40016d4:	e0b7cd17 	ldw	r2,-8396(fp)
 40016d8:	01400284 	movi	r5,10
 40016dc:	1009883a 	mov	r4,r2
 40016e0:	4018f4c0 	call	4018f4c <__divsi3>
 40016e4:	e0b7d315 	stw	r2,-8372(fp)
			hour_b = hour%10;
 40016e8:	e0b7cd17 	ldw	r2,-8396(fp)
 40016ec:	01400284 	movi	r5,10
 40016f0:	1009883a 	mov	r4,r2
 40016f4:	4018fd00 	call	4018fd0 <__modsi3>
 40016f8:	e0b7d415 	stw	r2,-8368(fp)
			day_a = day/10;
 40016fc:	e0b7ce17 	ldw	r2,-8392(fp)
 4001700:	01400284 	movi	r5,10
 4001704:	1009883a 	mov	r4,r2
 4001708:	4018f4c0 	call	4018f4c <__divsi3>
 400170c:	e0b7d515 	stw	r2,-8364(fp)
			day_b = day%10;
 4001710:	e0b7ce17 	ldw	r2,-8392(fp)
 4001714:	01400284 	movi	r5,10
 4001718:	1009883a 	mov	r4,r2
 400171c:	4018fd00 	call	4018fd0 <__modsi3>
 4001720:	e0b7d615 	stw	r2,-8360(fp)
			printf("%i:",day);
			printf("%i:",hour);
			printf("%i:",min);
			printf("%i\n",sec);
	*/
			if(sec_b == 0)
 4001724:	e0b7d017 	ldw	r2,-8384(fp)
 4001728:	10000c1e 	bne	r2,zero,400175c <main+0x1188>
			{
				draw1(dig_blank, COLOR08_BLACK, 39, 0);
 400172c:	e0befe04 	addi	r2,fp,-1032
 4001730:	000f883a 	mov	r7,zero
 4001734:	018009c4 	movi	r6,39
 4001738:	000b883a 	mov	r5,zero
 400173c:	1009883a 	mov	r4,r2
 4001740:	40004cc0 	call	40004cc <draw1>
				draw1(dig_zero, COLOR08_RED, 39, 0);
 4001744:	e0bb3e04 	addi	r2,fp,-4872
 4001748:	000f883a 	mov	r7,zero
 400174c:	018009c4 	movi	r6,39
 4001750:	01403804 	movi	r5,224
 4001754:	1009883a 	mov	r4,r2
 4001758:	40004cc0 	call	40004cc <draw1>
			}
			if(sec_b == 1)
 400175c:	e0b7d017 	ldw	r2,-8384(fp)
 4001760:	10800058 	cmpnei	r2,r2,1
 4001764:	10000c1e 	bne	r2,zero,4001798 <main+0x11c4>
			{
				draw1(dig_blank, COLOR08_BLACK, 39, 0);
 4001768:	e0befe04 	addi	r2,fp,-1032
 400176c:	000f883a 	mov	r7,zero
 4001770:	018009c4 	movi	r6,39
 4001774:	000b883a 	mov	r5,zero
 4001778:	1009883a 	mov	r4,r2
 400177c:	40004cc0 	call	40004cc <draw1>
				draw1(dig_one, COLOR08_RED, 39, 0);
 4001780:	e0bb9e04 	addi	r2,fp,-4488
 4001784:	000f883a 	mov	r7,zero
 4001788:	018009c4 	movi	r6,39
 400178c:	01403804 	movi	r5,224
 4001790:	1009883a 	mov	r4,r2
 4001794:	40004cc0 	call	40004cc <draw1>
			}
			if(sec_b == 2)
 4001798:	e0b7d017 	ldw	r2,-8384(fp)
 400179c:	10800098 	cmpnei	r2,r2,2
 40017a0:	10000c1e 	bne	r2,zero,40017d4 <main+0x1200>
			{
				draw1(dig_blank, COLOR08_BLACK, 39, 0);
 40017a4:	e0befe04 	addi	r2,fp,-1032
 40017a8:	000f883a 	mov	r7,zero
 40017ac:	018009c4 	movi	r6,39
 40017b0:	000b883a 	mov	r5,zero
 40017b4:	1009883a 	mov	r4,r2
 40017b8:	40004cc0 	call	40004cc <draw1>
				draw1(dig_two, COLOR08_RED, 39, 0);
 40017bc:	e0bbfe04 	addi	r2,fp,-4104
 40017c0:	000f883a 	mov	r7,zero
 40017c4:	018009c4 	movi	r6,39
 40017c8:	01403804 	movi	r5,224
 40017cc:	1009883a 	mov	r4,r2
 40017d0:	40004cc0 	call	40004cc <draw1>
			}
			if(sec_b == 3)
 40017d4:	e0b7d017 	ldw	r2,-8384(fp)
 40017d8:	108000d8 	cmpnei	r2,r2,3
 40017dc:	10000c1e 	bne	r2,zero,4001810 <main+0x123c>
			{
				draw1(dig_blank, COLOR08_BLACK, 39, 0);
 40017e0:	e0befe04 	addi	r2,fp,-1032
 40017e4:	000f883a 	mov	r7,zero
 40017e8:	018009c4 	movi	r6,39
 40017ec:	000b883a 	mov	r5,zero
 40017f0:	1009883a 	mov	r4,r2
 40017f4:	40004cc0 	call	40004cc <draw1>
				draw1(dig_three, COLOR08_RED, 39, 0);
 40017f8:	e0bc5e04 	addi	r2,fp,-3720
 40017fc:	000f883a 	mov	r7,zero
 4001800:	018009c4 	movi	r6,39
 4001804:	01403804 	movi	r5,224
 4001808:	1009883a 	mov	r4,r2
 400180c:	40004cc0 	call	40004cc <draw1>
			}
			if(sec_b == 4)
 4001810:	e0b7d017 	ldw	r2,-8384(fp)
 4001814:	10800118 	cmpnei	r2,r2,4
 4001818:	10000c1e 	bne	r2,zero,400184c <main+0x1278>
			{
				draw1(dig_blank, COLOR08_BLACK, 39, 0);
 400181c:	e0befe04 	addi	r2,fp,-1032
 4001820:	000f883a 	mov	r7,zero
 4001824:	018009c4 	movi	r6,39
 4001828:	000b883a 	mov	r5,zero
 400182c:	1009883a 	mov	r4,r2
 4001830:	40004cc0 	call	40004cc <draw1>
				draw1(dig_four, COLOR08_RED, 39, 0);
 4001834:	e0bcbe04 	addi	r2,fp,-3336
 4001838:	000f883a 	mov	r7,zero
 400183c:	018009c4 	movi	r6,39
 4001840:	01403804 	movi	r5,224
 4001844:	1009883a 	mov	r4,r2
 4001848:	40004cc0 	call	40004cc <draw1>
			}
			if(sec_b == 5)
 400184c:	e0b7d017 	ldw	r2,-8384(fp)
 4001850:	10800158 	cmpnei	r2,r2,5
 4001854:	10000c1e 	bne	r2,zero,4001888 <main+0x12b4>
			{
				draw1(dig_blank, COLOR08_BLACK, 39, 0);
 4001858:	e0befe04 	addi	r2,fp,-1032
 400185c:	000f883a 	mov	r7,zero
 4001860:	018009c4 	movi	r6,39
 4001864:	000b883a 	mov	r5,zero
 4001868:	1009883a 	mov	r4,r2
 400186c:	40004cc0 	call	40004cc <draw1>
				draw1(dig_five, COLOR08_RED, 39, 0);
 4001870:	e0bd1e04 	addi	r2,fp,-2952
 4001874:	000f883a 	mov	r7,zero
 4001878:	018009c4 	movi	r6,39
 400187c:	01403804 	movi	r5,224
 4001880:	1009883a 	mov	r4,r2
 4001884:	40004cc0 	call	40004cc <draw1>
			}
			if(sec_b == 6)
 4001888:	e0b7d017 	ldw	r2,-8384(fp)
 400188c:	10800198 	cmpnei	r2,r2,6
 4001890:	10000c1e 	bne	r2,zero,40018c4 <main+0x12f0>
			{
				draw1(dig_blank, COLOR08_BLACK, 39, 0);
 4001894:	e0befe04 	addi	r2,fp,-1032
 4001898:	000f883a 	mov	r7,zero
 400189c:	018009c4 	movi	r6,39
 40018a0:	000b883a 	mov	r5,zero
 40018a4:	1009883a 	mov	r4,r2
 40018a8:	40004cc0 	call	40004cc <draw1>
				draw1(dig_six, COLOR08_RED, 39, 0);
 40018ac:	e0bd7e04 	addi	r2,fp,-2568
 40018b0:	000f883a 	mov	r7,zero
 40018b4:	018009c4 	movi	r6,39
 40018b8:	01403804 	movi	r5,224
 40018bc:	1009883a 	mov	r4,r2
 40018c0:	40004cc0 	call	40004cc <draw1>
			}
			if(sec_b == 7)
 40018c4:	e0b7d017 	ldw	r2,-8384(fp)
 40018c8:	108001d8 	cmpnei	r2,r2,7
 40018cc:	10000c1e 	bne	r2,zero,4001900 <main+0x132c>
			{
				draw1(dig_blank, COLOR08_BLACK, 39, 0);
 40018d0:	e0befe04 	addi	r2,fp,-1032
 40018d4:	000f883a 	mov	r7,zero
 40018d8:	018009c4 	movi	r6,39
 40018dc:	000b883a 	mov	r5,zero
 40018e0:	1009883a 	mov	r4,r2
 40018e4:	40004cc0 	call	40004cc <draw1>
				draw1(dig_seven, COLOR08_RED, 39, 0);
 40018e8:	e0bdde04 	addi	r2,fp,-2184
 40018ec:	000f883a 	mov	r7,zero
 40018f0:	018009c4 	movi	r6,39
 40018f4:	01403804 	movi	r5,224
 40018f8:	1009883a 	mov	r4,r2
 40018fc:	40004cc0 	call	40004cc <draw1>
			}
			if(sec_b == 8)
 4001900:	e0b7d017 	ldw	r2,-8384(fp)
 4001904:	10800218 	cmpnei	r2,r2,8
 4001908:	10000c1e 	bne	r2,zero,400193c <main+0x1368>
			{
				draw1(dig_blank, COLOR08_BLACK, 39, 0);
 400190c:	e0befe04 	addi	r2,fp,-1032
 4001910:	000f883a 	mov	r7,zero
 4001914:	018009c4 	movi	r6,39
 4001918:	000b883a 	mov	r5,zero
 400191c:	1009883a 	mov	r4,r2
 4001920:	40004cc0 	call	40004cc <draw1>
				draw1(dig_eight, COLOR08_RED, 39, 0);
 4001924:	e0be3e04 	addi	r2,fp,-1800
 4001928:	000f883a 	mov	r7,zero
 400192c:	018009c4 	movi	r6,39
 4001930:	01403804 	movi	r5,224
 4001934:	1009883a 	mov	r4,r2
 4001938:	40004cc0 	call	40004cc <draw1>
			}
			if(sec_b == 9)
 400193c:	e0b7d017 	ldw	r2,-8384(fp)
 4001940:	10800258 	cmpnei	r2,r2,9
 4001944:	10000c1e 	bne	r2,zero,4001978 <main+0x13a4>
			{
				draw1(dig_blank, COLOR08_BLACK, 39, 0);
 4001948:	e0befe04 	addi	r2,fp,-1032
 400194c:	000f883a 	mov	r7,zero
 4001950:	018009c4 	movi	r6,39
 4001954:	000b883a 	mov	r5,zero
 4001958:	1009883a 	mov	r4,r2
 400195c:	40004cc0 	call	40004cc <draw1>
				draw1(dig_nine, COLOR08_RED, 39, 0);
 4001960:	e0be9e04 	addi	r2,fp,-1416
 4001964:	000f883a 	mov	r7,zero
 4001968:	018009c4 	movi	r6,39
 400196c:	01403804 	movi	r5,224
 4001970:	1009883a 	mov	r4,r2
 4001974:	40004cc0 	call	40004cc <draw1>
			}




			if(sec_a == 0)
 4001978:	e0b7cf17 	ldw	r2,-8388(fp)
 400197c:	10000c1e 	bne	r2,zero,40019b0 <main+0x13dc>
			{
				draw1(dig_blank, COLOR08_BLACK, 38, 0);
 4001980:	e0befe04 	addi	r2,fp,-1032
 4001984:	000f883a 	mov	r7,zero
 4001988:	01800984 	movi	r6,38
 400198c:	000b883a 	mov	r5,zero
 4001990:	1009883a 	mov	r4,r2
 4001994:	40004cc0 	call	40004cc <draw1>
				draw1(dig_zero, COLOR08_RED, 38, 0);
 4001998:	e0bb3e04 	addi	r2,fp,-4872
 400199c:	000f883a 	mov	r7,zero
 40019a0:	01800984 	movi	r6,38
 40019a4:	01403804 	movi	r5,224
 40019a8:	1009883a 	mov	r4,r2
 40019ac:	40004cc0 	call	40004cc <draw1>
			}
			if(sec_a == 1)
 40019b0:	e0b7cf17 	ldw	r2,-8388(fp)
 40019b4:	10800058 	cmpnei	r2,r2,1
 40019b8:	10000c1e 	bne	r2,zero,40019ec <main+0x1418>
			{
				draw1(dig_blank, COLOR08_BLACK, 38, 0);
 40019bc:	e0befe04 	addi	r2,fp,-1032
 40019c0:	000f883a 	mov	r7,zero
 40019c4:	01800984 	movi	r6,38
 40019c8:	000b883a 	mov	r5,zero
 40019cc:	1009883a 	mov	r4,r2
 40019d0:	40004cc0 	call	40004cc <draw1>
				draw1(dig_one, COLOR08_RED, 38, 0);
 40019d4:	e0bb9e04 	addi	r2,fp,-4488
 40019d8:	000f883a 	mov	r7,zero
 40019dc:	01800984 	movi	r6,38
 40019e0:	01403804 	movi	r5,224
 40019e4:	1009883a 	mov	r4,r2
 40019e8:	40004cc0 	call	40004cc <draw1>
			}
			if(sec_a == 2)
 40019ec:	e0b7cf17 	ldw	r2,-8388(fp)
 40019f0:	10800098 	cmpnei	r2,r2,2
 40019f4:	10000c1e 	bne	r2,zero,4001a28 <main+0x1454>
			{
				draw1(dig_blank, COLOR08_BLACK, 38, 0);
 40019f8:	e0befe04 	addi	r2,fp,-1032
 40019fc:	000f883a 	mov	r7,zero
 4001a00:	01800984 	movi	r6,38
 4001a04:	000b883a 	mov	r5,zero
 4001a08:	1009883a 	mov	r4,r2
 4001a0c:	40004cc0 	call	40004cc <draw1>
				draw1(dig_two, COLOR08_RED, 38, 0);
 4001a10:	e0bbfe04 	addi	r2,fp,-4104
 4001a14:	000f883a 	mov	r7,zero
 4001a18:	01800984 	movi	r6,38
 4001a1c:	01403804 	movi	r5,224
 4001a20:	1009883a 	mov	r4,r2
 4001a24:	40004cc0 	call	40004cc <draw1>
			}
			if(sec_a == 3)
 4001a28:	e0b7cf17 	ldw	r2,-8388(fp)
 4001a2c:	108000d8 	cmpnei	r2,r2,3
 4001a30:	10000c1e 	bne	r2,zero,4001a64 <main+0x1490>
			{
				draw1(dig_blank, COLOR08_BLACK, 38, 0);
 4001a34:	e0befe04 	addi	r2,fp,-1032
 4001a38:	000f883a 	mov	r7,zero
 4001a3c:	01800984 	movi	r6,38
 4001a40:	000b883a 	mov	r5,zero
 4001a44:	1009883a 	mov	r4,r2
 4001a48:	40004cc0 	call	40004cc <draw1>
				draw1(dig_three, COLOR08_RED, 38, 0);
 4001a4c:	e0bc5e04 	addi	r2,fp,-3720
 4001a50:	000f883a 	mov	r7,zero
 4001a54:	01800984 	movi	r6,38
 4001a58:	01403804 	movi	r5,224
 4001a5c:	1009883a 	mov	r4,r2
 4001a60:	40004cc0 	call	40004cc <draw1>
			}
			if(sec_a == 4)
 4001a64:	e0b7cf17 	ldw	r2,-8388(fp)
 4001a68:	10800118 	cmpnei	r2,r2,4
 4001a6c:	10000c1e 	bne	r2,zero,4001aa0 <main+0x14cc>
			{
				draw1(dig_blank, COLOR08_BLACK, 38, 0);
 4001a70:	e0befe04 	addi	r2,fp,-1032
 4001a74:	000f883a 	mov	r7,zero
 4001a78:	01800984 	movi	r6,38
 4001a7c:	000b883a 	mov	r5,zero
 4001a80:	1009883a 	mov	r4,r2
 4001a84:	40004cc0 	call	40004cc <draw1>
				draw1(dig_four, COLOR08_RED, 38, 0);
 4001a88:	e0bcbe04 	addi	r2,fp,-3336
 4001a8c:	000f883a 	mov	r7,zero
 4001a90:	01800984 	movi	r6,38
 4001a94:	01403804 	movi	r5,224
 4001a98:	1009883a 	mov	r4,r2
 4001a9c:	40004cc0 	call	40004cc <draw1>
			}
			if(sec_a == 5)
 4001aa0:	e0b7cf17 	ldw	r2,-8388(fp)
 4001aa4:	10800158 	cmpnei	r2,r2,5
 4001aa8:	10000c1e 	bne	r2,zero,4001adc <main+0x1508>
			{
				draw1(dig_blank, COLOR08_BLACK, 38, 0);
 4001aac:	e0befe04 	addi	r2,fp,-1032
 4001ab0:	000f883a 	mov	r7,zero
 4001ab4:	01800984 	movi	r6,38
 4001ab8:	000b883a 	mov	r5,zero
 4001abc:	1009883a 	mov	r4,r2
 4001ac0:	40004cc0 	call	40004cc <draw1>
				draw1(dig_five, COLOR08_RED, 38, 0);
 4001ac4:	e0bd1e04 	addi	r2,fp,-2952
 4001ac8:	000f883a 	mov	r7,zero
 4001acc:	01800984 	movi	r6,38
 4001ad0:	01403804 	movi	r5,224
 4001ad4:	1009883a 	mov	r4,r2
 4001ad8:	40004cc0 	call	40004cc <draw1>
			}
			if(sec_a == 6)
 4001adc:	e0b7cf17 	ldw	r2,-8388(fp)
 4001ae0:	10800198 	cmpnei	r2,r2,6
 4001ae4:	10000c1e 	bne	r2,zero,4001b18 <main+0x1544>
			{
				draw1(dig_blank, COLOR08_BLACK, 38, 0);
 4001ae8:	e0befe04 	addi	r2,fp,-1032
 4001aec:	000f883a 	mov	r7,zero
 4001af0:	01800984 	movi	r6,38
 4001af4:	000b883a 	mov	r5,zero
 4001af8:	1009883a 	mov	r4,r2
 4001afc:	40004cc0 	call	40004cc <draw1>
				draw1(dig_six, COLOR08_RED, 38, 0);
 4001b00:	e0bd7e04 	addi	r2,fp,-2568
 4001b04:	000f883a 	mov	r7,zero
 4001b08:	01800984 	movi	r6,38
 4001b0c:	01403804 	movi	r5,224
 4001b10:	1009883a 	mov	r4,r2
 4001b14:	40004cc0 	call	40004cc <draw1>
			}
			if(sec_a == 7)
 4001b18:	e0b7cf17 	ldw	r2,-8388(fp)
 4001b1c:	108001d8 	cmpnei	r2,r2,7
 4001b20:	10000c1e 	bne	r2,zero,4001b54 <main+0x1580>
			{
				draw1(dig_blank, COLOR08_BLACK, 38, 0);
 4001b24:	e0befe04 	addi	r2,fp,-1032
 4001b28:	000f883a 	mov	r7,zero
 4001b2c:	01800984 	movi	r6,38
 4001b30:	000b883a 	mov	r5,zero
 4001b34:	1009883a 	mov	r4,r2
 4001b38:	40004cc0 	call	40004cc <draw1>
				draw1(dig_seven, COLOR08_RED, 38, 0);
 4001b3c:	e0bdde04 	addi	r2,fp,-2184
 4001b40:	000f883a 	mov	r7,zero
 4001b44:	01800984 	movi	r6,38
 4001b48:	01403804 	movi	r5,224
 4001b4c:	1009883a 	mov	r4,r2
 4001b50:	40004cc0 	call	40004cc <draw1>
			}
			if(sec_a == 8)
 4001b54:	e0b7cf17 	ldw	r2,-8388(fp)
 4001b58:	10800218 	cmpnei	r2,r2,8
 4001b5c:	10000c1e 	bne	r2,zero,4001b90 <main+0x15bc>
			{
				draw1(dig_blank, COLOR08_BLACK, 38, 0);
 4001b60:	e0befe04 	addi	r2,fp,-1032
 4001b64:	000f883a 	mov	r7,zero
 4001b68:	01800984 	movi	r6,38
 4001b6c:	000b883a 	mov	r5,zero
 4001b70:	1009883a 	mov	r4,r2
 4001b74:	40004cc0 	call	40004cc <draw1>
				draw1(dig_eight, COLOR08_RED, 38, 0);
 4001b78:	e0be3e04 	addi	r2,fp,-1800
 4001b7c:	000f883a 	mov	r7,zero
 4001b80:	01800984 	movi	r6,38
 4001b84:	01403804 	movi	r5,224
 4001b88:	1009883a 	mov	r4,r2
 4001b8c:	40004cc0 	call	40004cc <draw1>
			}
			if(sec_a == 9)
 4001b90:	e0b7cf17 	ldw	r2,-8388(fp)
 4001b94:	10800258 	cmpnei	r2,r2,9
 4001b98:	10000c1e 	bne	r2,zero,4001bcc <main+0x15f8>
			{
				draw1(dig_blank, COLOR08_BLACK, 38, 0);
 4001b9c:	e0befe04 	addi	r2,fp,-1032
 4001ba0:	000f883a 	mov	r7,zero
 4001ba4:	01800984 	movi	r6,38
 4001ba8:	000b883a 	mov	r5,zero
 4001bac:	1009883a 	mov	r4,r2
 4001bb0:	40004cc0 	call	40004cc <draw1>
				draw1(dig_nine, COLOR08_RED, 38, 0);
 4001bb4:	e0be9e04 	addi	r2,fp,-1416
 4001bb8:	000f883a 	mov	r7,zero
 4001bbc:	01800984 	movi	r6,38
 4001bc0:	01403804 	movi	r5,224
 4001bc4:	1009883a 	mov	r4,r2
 4001bc8:	40004cc0 	call	40004cc <draw1>
			}


			if(min_b == 0)
 4001bcc:	e0b7d217 	ldw	r2,-8376(fp)
 4001bd0:	10000c1e 	bne	r2,zero,4001c04 <main+0x1630>
			{
				draw1(dig_blank, COLOR08_BLACK, 36, 0);
 4001bd4:	e0befe04 	addi	r2,fp,-1032
 4001bd8:	000f883a 	mov	r7,zero
 4001bdc:	01800904 	movi	r6,36
 4001be0:	000b883a 	mov	r5,zero
 4001be4:	1009883a 	mov	r4,r2
 4001be8:	40004cc0 	call	40004cc <draw1>
				draw1(dig_zero, COLOR08_RED, 36, 0);
 4001bec:	e0bb3e04 	addi	r2,fp,-4872
 4001bf0:	000f883a 	mov	r7,zero
 4001bf4:	01800904 	movi	r6,36
 4001bf8:	01403804 	movi	r5,224
 4001bfc:	1009883a 	mov	r4,r2
 4001c00:	40004cc0 	call	40004cc <draw1>
			}
			if(min_b == 1)
 4001c04:	e0b7d217 	ldw	r2,-8376(fp)
 4001c08:	10800058 	cmpnei	r2,r2,1
 4001c0c:	10000c1e 	bne	r2,zero,4001c40 <main+0x166c>
			{
				draw1(dig_blank, COLOR08_BLACK, 36, 0);
 4001c10:	e0befe04 	addi	r2,fp,-1032
 4001c14:	000f883a 	mov	r7,zero
 4001c18:	01800904 	movi	r6,36
 4001c1c:	000b883a 	mov	r5,zero
 4001c20:	1009883a 	mov	r4,r2
 4001c24:	40004cc0 	call	40004cc <draw1>
				draw1(dig_one, COLOR08_RED, 36, 0);
 4001c28:	e0bb9e04 	addi	r2,fp,-4488
 4001c2c:	000f883a 	mov	r7,zero
 4001c30:	01800904 	movi	r6,36
 4001c34:	01403804 	movi	r5,224
 4001c38:	1009883a 	mov	r4,r2
 4001c3c:	40004cc0 	call	40004cc <draw1>
			}
			if(min_b == 2)
 4001c40:	e0b7d217 	ldw	r2,-8376(fp)
 4001c44:	10800098 	cmpnei	r2,r2,2
 4001c48:	10000c1e 	bne	r2,zero,4001c7c <main+0x16a8>
			{
				draw1(dig_blank, COLOR08_BLACK, 36, 0);
 4001c4c:	e0befe04 	addi	r2,fp,-1032
 4001c50:	000f883a 	mov	r7,zero
 4001c54:	01800904 	movi	r6,36
 4001c58:	000b883a 	mov	r5,zero
 4001c5c:	1009883a 	mov	r4,r2
 4001c60:	40004cc0 	call	40004cc <draw1>
				draw1(dig_two, COLOR08_RED, 36, 0);
 4001c64:	e0bbfe04 	addi	r2,fp,-4104
 4001c68:	000f883a 	mov	r7,zero
 4001c6c:	01800904 	movi	r6,36
 4001c70:	01403804 	movi	r5,224
 4001c74:	1009883a 	mov	r4,r2
 4001c78:	40004cc0 	call	40004cc <draw1>
			}
			if(min_b == 3)
 4001c7c:	e0b7d217 	ldw	r2,-8376(fp)
 4001c80:	108000d8 	cmpnei	r2,r2,3
 4001c84:	10000c1e 	bne	r2,zero,4001cb8 <main+0x16e4>
			{
				draw1(dig_blank, COLOR08_BLACK, 36, 0);
 4001c88:	e0befe04 	addi	r2,fp,-1032
 4001c8c:	000f883a 	mov	r7,zero
 4001c90:	01800904 	movi	r6,36
 4001c94:	000b883a 	mov	r5,zero
 4001c98:	1009883a 	mov	r4,r2
 4001c9c:	40004cc0 	call	40004cc <draw1>
				draw1(dig_three, COLOR08_RED, 36, 0);
 4001ca0:	e0bc5e04 	addi	r2,fp,-3720
 4001ca4:	000f883a 	mov	r7,zero
 4001ca8:	01800904 	movi	r6,36
 4001cac:	01403804 	movi	r5,224
 4001cb0:	1009883a 	mov	r4,r2
 4001cb4:	40004cc0 	call	40004cc <draw1>
			}
			if(min_b == 4)
 4001cb8:	e0b7d217 	ldw	r2,-8376(fp)
 4001cbc:	10800118 	cmpnei	r2,r2,4
 4001cc0:	10000c1e 	bne	r2,zero,4001cf4 <main+0x1720>
			{
				draw1(dig_blank, COLOR08_BLACK, 36, 0);
 4001cc4:	e0befe04 	addi	r2,fp,-1032
 4001cc8:	000f883a 	mov	r7,zero
 4001ccc:	01800904 	movi	r6,36
 4001cd0:	000b883a 	mov	r5,zero
 4001cd4:	1009883a 	mov	r4,r2
 4001cd8:	40004cc0 	call	40004cc <draw1>
				draw1(dig_four, COLOR08_RED, 36, 0);
 4001cdc:	e0bcbe04 	addi	r2,fp,-3336
 4001ce0:	000f883a 	mov	r7,zero
 4001ce4:	01800904 	movi	r6,36
 4001ce8:	01403804 	movi	r5,224
 4001cec:	1009883a 	mov	r4,r2
 4001cf0:	40004cc0 	call	40004cc <draw1>
			}
			if(min_b == 5)
 4001cf4:	e0b7d217 	ldw	r2,-8376(fp)
 4001cf8:	10800158 	cmpnei	r2,r2,5
 4001cfc:	10000c1e 	bne	r2,zero,4001d30 <main+0x175c>
			{
				draw1(dig_blank, COLOR08_BLACK, 36, 0);
 4001d00:	e0befe04 	addi	r2,fp,-1032
 4001d04:	000f883a 	mov	r7,zero
 4001d08:	01800904 	movi	r6,36
 4001d0c:	000b883a 	mov	r5,zero
 4001d10:	1009883a 	mov	r4,r2
 4001d14:	40004cc0 	call	40004cc <draw1>
				draw1(dig_five, COLOR08_RED, 36, 0);
 4001d18:	e0bd1e04 	addi	r2,fp,-2952
 4001d1c:	000f883a 	mov	r7,zero
 4001d20:	01800904 	movi	r6,36
 4001d24:	01403804 	movi	r5,224
 4001d28:	1009883a 	mov	r4,r2
 4001d2c:	40004cc0 	call	40004cc <draw1>
			}
			if(min_b == 6)
 4001d30:	e0b7d217 	ldw	r2,-8376(fp)
 4001d34:	10800198 	cmpnei	r2,r2,6
 4001d38:	10000c1e 	bne	r2,zero,4001d6c <main+0x1798>
			{
				draw1(dig_blank, COLOR08_BLACK, 36, 0);
 4001d3c:	e0befe04 	addi	r2,fp,-1032
 4001d40:	000f883a 	mov	r7,zero
 4001d44:	01800904 	movi	r6,36
 4001d48:	000b883a 	mov	r5,zero
 4001d4c:	1009883a 	mov	r4,r2
 4001d50:	40004cc0 	call	40004cc <draw1>
				draw1(dig_six, COLOR08_RED, 36, 0);
 4001d54:	e0bd7e04 	addi	r2,fp,-2568
 4001d58:	000f883a 	mov	r7,zero
 4001d5c:	01800904 	movi	r6,36
 4001d60:	01403804 	movi	r5,224
 4001d64:	1009883a 	mov	r4,r2
 4001d68:	40004cc0 	call	40004cc <draw1>
			}
			if(min_b == 7)
 4001d6c:	e0b7d217 	ldw	r2,-8376(fp)
 4001d70:	108001d8 	cmpnei	r2,r2,7
 4001d74:	10000c1e 	bne	r2,zero,4001da8 <main+0x17d4>
			{
				draw1(dig_blank, COLOR08_BLACK, 36, 0);
 4001d78:	e0befe04 	addi	r2,fp,-1032
 4001d7c:	000f883a 	mov	r7,zero
 4001d80:	01800904 	movi	r6,36
 4001d84:	000b883a 	mov	r5,zero
 4001d88:	1009883a 	mov	r4,r2
 4001d8c:	40004cc0 	call	40004cc <draw1>
				draw1(dig_seven, COLOR08_RED, 36, 0);
 4001d90:	e0bdde04 	addi	r2,fp,-2184
 4001d94:	000f883a 	mov	r7,zero
 4001d98:	01800904 	movi	r6,36
 4001d9c:	01403804 	movi	r5,224
 4001da0:	1009883a 	mov	r4,r2
 4001da4:	40004cc0 	call	40004cc <draw1>
			}
			if(min_b == 8)
 4001da8:	e0b7d217 	ldw	r2,-8376(fp)
 4001dac:	10800218 	cmpnei	r2,r2,8
 4001db0:	10000c1e 	bne	r2,zero,4001de4 <main+0x1810>
			{
				draw1(dig_blank, COLOR08_BLACK, 36, 0);
 4001db4:	e0befe04 	addi	r2,fp,-1032
 4001db8:	000f883a 	mov	r7,zero
 4001dbc:	01800904 	movi	r6,36
 4001dc0:	000b883a 	mov	r5,zero
 4001dc4:	1009883a 	mov	r4,r2
 4001dc8:	40004cc0 	call	40004cc <draw1>
				draw1(dig_eight, COLOR08_RED, 36, 0);
 4001dcc:	e0be3e04 	addi	r2,fp,-1800
 4001dd0:	000f883a 	mov	r7,zero
 4001dd4:	01800904 	movi	r6,36
 4001dd8:	01403804 	movi	r5,224
 4001ddc:	1009883a 	mov	r4,r2
 4001de0:	40004cc0 	call	40004cc <draw1>
			}
			if(min_b == 9)
 4001de4:	e0b7d217 	ldw	r2,-8376(fp)
 4001de8:	10800258 	cmpnei	r2,r2,9
 4001dec:	10000c1e 	bne	r2,zero,4001e20 <main+0x184c>
			{
				draw1(dig_blank, COLOR08_BLACK, 36, 0);
 4001df0:	e0befe04 	addi	r2,fp,-1032
 4001df4:	000f883a 	mov	r7,zero
 4001df8:	01800904 	movi	r6,36
 4001dfc:	000b883a 	mov	r5,zero
 4001e00:	1009883a 	mov	r4,r2
 4001e04:	40004cc0 	call	40004cc <draw1>
				draw1(dig_nine, COLOR08_RED, 36, 0);
 4001e08:	e0be9e04 	addi	r2,fp,-1416
 4001e0c:	000f883a 	mov	r7,zero
 4001e10:	01800904 	movi	r6,36
 4001e14:	01403804 	movi	r5,224
 4001e18:	1009883a 	mov	r4,r2
 4001e1c:	40004cc0 	call	40004cc <draw1>
			}




			if(min_a == 0)
 4001e20:	e0b7d117 	ldw	r2,-8380(fp)
 4001e24:	10000c1e 	bne	r2,zero,4001e58 <main+0x1884>
			{
				draw1(dig_blank, COLOR08_BLACK, 35, 0);
 4001e28:	e0befe04 	addi	r2,fp,-1032
 4001e2c:	000f883a 	mov	r7,zero
 4001e30:	018008c4 	movi	r6,35
 4001e34:	000b883a 	mov	r5,zero
 4001e38:	1009883a 	mov	r4,r2
 4001e3c:	40004cc0 	call	40004cc <draw1>
				draw1(dig_zero, COLOR08_RED, 35, 0);
 4001e40:	e0bb3e04 	addi	r2,fp,-4872
 4001e44:	000f883a 	mov	r7,zero
 4001e48:	018008c4 	movi	r6,35
 4001e4c:	01403804 	movi	r5,224
 4001e50:	1009883a 	mov	r4,r2
 4001e54:	40004cc0 	call	40004cc <draw1>
			}
			if(min_a == 1)
 4001e58:	e0b7d117 	ldw	r2,-8380(fp)
 4001e5c:	10800058 	cmpnei	r2,r2,1
 4001e60:	10000c1e 	bne	r2,zero,4001e94 <main+0x18c0>
			{
				draw1(dig_blank, COLOR08_BLACK, 35, 0);
 4001e64:	e0befe04 	addi	r2,fp,-1032
 4001e68:	000f883a 	mov	r7,zero
 4001e6c:	018008c4 	movi	r6,35
 4001e70:	000b883a 	mov	r5,zero
 4001e74:	1009883a 	mov	r4,r2
 4001e78:	40004cc0 	call	40004cc <draw1>
				draw1(dig_one, COLOR08_RED, 35, 0);
 4001e7c:	e0bb9e04 	addi	r2,fp,-4488
 4001e80:	000f883a 	mov	r7,zero
 4001e84:	018008c4 	movi	r6,35
 4001e88:	01403804 	movi	r5,224
 4001e8c:	1009883a 	mov	r4,r2
 4001e90:	40004cc0 	call	40004cc <draw1>
			}
			if(min_a == 2)
 4001e94:	e0b7d117 	ldw	r2,-8380(fp)
 4001e98:	10800098 	cmpnei	r2,r2,2
 4001e9c:	10000c1e 	bne	r2,zero,4001ed0 <main+0x18fc>
			{
				draw1(dig_blank, COLOR08_BLACK, 35, 0);
 4001ea0:	e0befe04 	addi	r2,fp,-1032
 4001ea4:	000f883a 	mov	r7,zero
 4001ea8:	018008c4 	movi	r6,35
 4001eac:	000b883a 	mov	r5,zero
 4001eb0:	1009883a 	mov	r4,r2
 4001eb4:	40004cc0 	call	40004cc <draw1>
				draw1(dig_two, COLOR08_RED, 35, 0);
 4001eb8:	e0bbfe04 	addi	r2,fp,-4104
 4001ebc:	000f883a 	mov	r7,zero
 4001ec0:	018008c4 	movi	r6,35
 4001ec4:	01403804 	movi	r5,224
 4001ec8:	1009883a 	mov	r4,r2
 4001ecc:	40004cc0 	call	40004cc <draw1>
			}
			if(min_a == 3)
 4001ed0:	e0b7d117 	ldw	r2,-8380(fp)
 4001ed4:	108000d8 	cmpnei	r2,r2,3
 4001ed8:	10000c1e 	bne	r2,zero,4001f0c <main+0x1938>
			{
				draw1(dig_blank, COLOR08_BLACK, 35, 0);
 4001edc:	e0befe04 	addi	r2,fp,-1032
 4001ee0:	000f883a 	mov	r7,zero
 4001ee4:	018008c4 	movi	r6,35
 4001ee8:	000b883a 	mov	r5,zero
 4001eec:	1009883a 	mov	r4,r2
 4001ef0:	40004cc0 	call	40004cc <draw1>
				draw1(dig_three, COLOR08_RED, 35, 0);
 4001ef4:	e0bc5e04 	addi	r2,fp,-3720
 4001ef8:	000f883a 	mov	r7,zero
 4001efc:	018008c4 	movi	r6,35
 4001f00:	01403804 	movi	r5,224
 4001f04:	1009883a 	mov	r4,r2
 4001f08:	40004cc0 	call	40004cc <draw1>
			}
			if(min_a == 4)
 4001f0c:	e0b7d117 	ldw	r2,-8380(fp)
 4001f10:	10800118 	cmpnei	r2,r2,4
 4001f14:	10000c1e 	bne	r2,zero,4001f48 <main+0x1974>
			{
				draw1(dig_blank, COLOR08_BLACK, 35, 0);
 4001f18:	e0befe04 	addi	r2,fp,-1032
 4001f1c:	000f883a 	mov	r7,zero
 4001f20:	018008c4 	movi	r6,35
 4001f24:	000b883a 	mov	r5,zero
 4001f28:	1009883a 	mov	r4,r2
 4001f2c:	40004cc0 	call	40004cc <draw1>
				draw1(dig_four, COLOR08_RED, 35, 0);
 4001f30:	e0bcbe04 	addi	r2,fp,-3336
 4001f34:	000f883a 	mov	r7,zero
 4001f38:	018008c4 	movi	r6,35
 4001f3c:	01403804 	movi	r5,224
 4001f40:	1009883a 	mov	r4,r2
 4001f44:	40004cc0 	call	40004cc <draw1>
			}
			if(min_a == 5)
 4001f48:	e0b7d117 	ldw	r2,-8380(fp)
 4001f4c:	10800158 	cmpnei	r2,r2,5
 4001f50:	10000c1e 	bne	r2,zero,4001f84 <main+0x19b0>
			{
				draw1(dig_blank, COLOR08_BLACK, 35, 0);
 4001f54:	e0befe04 	addi	r2,fp,-1032
 4001f58:	000f883a 	mov	r7,zero
 4001f5c:	018008c4 	movi	r6,35
 4001f60:	000b883a 	mov	r5,zero
 4001f64:	1009883a 	mov	r4,r2
 4001f68:	40004cc0 	call	40004cc <draw1>
				draw1(dig_five, COLOR08_RED, 35, 0);
 4001f6c:	e0bd1e04 	addi	r2,fp,-2952
 4001f70:	000f883a 	mov	r7,zero
 4001f74:	018008c4 	movi	r6,35
 4001f78:	01403804 	movi	r5,224
 4001f7c:	1009883a 	mov	r4,r2
 4001f80:	40004cc0 	call	40004cc <draw1>
			}
			if(min_a == 6)
 4001f84:	e0b7d117 	ldw	r2,-8380(fp)
 4001f88:	10800198 	cmpnei	r2,r2,6
 4001f8c:	10000c1e 	bne	r2,zero,4001fc0 <main+0x19ec>
			{
				draw1(dig_blank, COLOR08_BLACK, 35, 0);
 4001f90:	e0befe04 	addi	r2,fp,-1032
 4001f94:	000f883a 	mov	r7,zero
 4001f98:	018008c4 	movi	r6,35
 4001f9c:	000b883a 	mov	r5,zero
 4001fa0:	1009883a 	mov	r4,r2
 4001fa4:	40004cc0 	call	40004cc <draw1>
				draw1(dig_six, COLOR08_RED, 35, 0);
 4001fa8:	e0bd7e04 	addi	r2,fp,-2568
 4001fac:	000f883a 	mov	r7,zero
 4001fb0:	018008c4 	movi	r6,35
 4001fb4:	01403804 	movi	r5,224
 4001fb8:	1009883a 	mov	r4,r2
 4001fbc:	40004cc0 	call	40004cc <draw1>
			}
			if(min_a == 7)
 4001fc0:	e0b7d117 	ldw	r2,-8380(fp)
 4001fc4:	108001d8 	cmpnei	r2,r2,7
 4001fc8:	10000c1e 	bne	r2,zero,4001ffc <main+0x1a28>
			{
				draw1(dig_blank, COLOR08_BLACK, 35, 0);
 4001fcc:	e0befe04 	addi	r2,fp,-1032
 4001fd0:	000f883a 	mov	r7,zero
 4001fd4:	018008c4 	movi	r6,35
 4001fd8:	000b883a 	mov	r5,zero
 4001fdc:	1009883a 	mov	r4,r2
 4001fe0:	40004cc0 	call	40004cc <draw1>
				draw1(dig_seven, COLOR08_RED, 35, 0);
 4001fe4:	e0bdde04 	addi	r2,fp,-2184
 4001fe8:	000f883a 	mov	r7,zero
 4001fec:	018008c4 	movi	r6,35
 4001ff0:	01403804 	movi	r5,224
 4001ff4:	1009883a 	mov	r4,r2
 4001ff8:	40004cc0 	call	40004cc <draw1>
			}
			if(min_a == 8)
 4001ffc:	e0b7d117 	ldw	r2,-8380(fp)
 4002000:	10800218 	cmpnei	r2,r2,8
 4002004:	10000c1e 	bne	r2,zero,4002038 <main+0x1a64>
			{
				draw1(dig_blank, COLOR08_BLACK, 35, 0);
 4002008:	e0befe04 	addi	r2,fp,-1032
 400200c:	000f883a 	mov	r7,zero
 4002010:	018008c4 	movi	r6,35
 4002014:	000b883a 	mov	r5,zero
 4002018:	1009883a 	mov	r4,r2
 400201c:	40004cc0 	call	40004cc <draw1>
				draw1(dig_eight, COLOR08_RED, 35, 0);
 4002020:	e0be3e04 	addi	r2,fp,-1800
 4002024:	000f883a 	mov	r7,zero
 4002028:	018008c4 	movi	r6,35
 400202c:	01403804 	movi	r5,224
 4002030:	1009883a 	mov	r4,r2
 4002034:	40004cc0 	call	40004cc <draw1>
			}
			if(min_a == 9)
 4002038:	e0b7d117 	ldw	r2,-8380(fp)
 400203c:	10800258 	cmpnei	r2,r2,9
 4002040:	10000c1e 	bne	r2,zero,4002074 <main+0x1aa0>
			{
				draw1(dig_blank, COLOR08_BLACK, 35, 0);
 4002044:	e0befe04 	addi	r2,fp,-1032
 4002048:	000f883a 	mov	r7,zero
 400204c:	018008c4 	movi	r6,35
 4002050:	000b883a 	mov	r5,zero
 4002054:	1009883a 	mov	r4,r2
 4002058:	40004cc0 	call	40004cc <draw1>
				draw1(dig_nine, COLOR08_RED, 35, 0);
 400205c:	e0be9e04 	addi	r2,fp,-1416
 4002060:	000f883a 	mov	r7,zero
 4002064:	018008c4 	movi	r6,35
 4002068:	01403804 	movi	r5,224
 400206c:	1009883a 	mov	r4,r2
 4002070:	40004cc0 	call	40004cc <draw1>
			}

			if(hour_b == 0)
 4002074:	e0b7d417 	ldw	r2,-8368(fp)
 4002078:	10000c1e 	bne	r2,zero,40020ac <main+0x1ad8>
			{
				draw1(dig_blank, COLOR08_BLACK, 33, 0);
 400207c:	e0befe04 	addi	r2,fp,-1032
 4002080:	000f883a 	mov	r7,zero
 4002084:	01800844 	movi	r6,33
 4002088:	000b883a 	mov	r5,zero
 400208c:	1009883a 	mov	r4,r2
 4002090:	40004cc0 	call	40004cc <draw1>
				draw1(dig_zero, COLOR08_RED, 33, 0);
 4002094:	e0bb3e04 	addi	r2,fp,-4872
 4002098:	000f883a 	mov	r7,zero
 400209c:	01800844 	movi	r6,33
 40020a0:	01403804 	movi	r5,224
 40020a4:	1009883a 	mov	r4,r2
 40020a8:	40004cc0 	call	40004cc <draw1>
			}
			if(hour_b == 1)
 40020ac:	e0b7d417 	ldw	r2,-8368(fp)
 40020b0:	10800058 	cmpnei	r2,r2,1
 40020b4:	10000c1e 	bne	r2,zero,40020e8 <main+0x1b14>
			{
				draw1(dig_blank, COLOR08_BLACK, 33, 0);
 40020b8:	e0befe04 	addi	r2,fp,-1032
 40020bc:	000f883a 	mov	r7,zero
 40020c0:	01800844 	movi	r6,33
 40020c4:	000b883a 	mov	r5,zero
 40020c8:	1009883a 	mov	r4,r2
 40020cc:	40004cc0 	call	40004cc <draw1>
				draw1(dig_one, COLOR08_RED, 33, 0);
 40020d0:	e0bb9e04 	addi	r2,fp,-4488
 40020d4:	000f883a 	mov	r7,zero
 40020d8:	01800844 	movi	r6,33
 40020dc:	01403804 	movi	r5,224
 40020e0:	1009883a 	mov	r4,r2
 40020e4:	40004cc0 	call	40004cc <draw1>
			}
			if(hour_b == 2)
 40020e8:	e0b7d417 	ldw	r2,-8368(fp)
 40020ec:	10800098 	cmpnei	r2,r2,2
 40020f0:	10000c1e 	bne	r2,zero,4002124 <main+0x1b50>
			{
				draw1(dig_blank, COLOR08_BLACK, 33, 0);
 40020f4:	e0befe04 	addi	r2,fp,-1032
 40020f8:	000f883a 	mov	r7,zero
 40020fc:	01800844 	movi	r6,33
 4002100:	000b883a 	mov	r5,zero
 4002104:	1009883a 	mov	r4,r2
 4002108:	40004cc0 	call	40004cc <draw1>
				draw1(dig_two, COLOR08_RED, 33, 0);
 400210c:	e0bbfe04 	addi	r2,fp,-4104
 4002110:	000f883a 	mov	r7,zero
 4002114:	01800844 	movi	r6,33
 4002118:	01403804 	movi	r5,224
 400211c:	1009883a 	mov	r4,r2
 4002120:	40004cc0 	call	40004cc <draw1>
			}
			if(hour_b == 3)
 4002124:	e0b7d417 	ldw	r2,-8368(fp)
 4002128:	108000d8 	cmpnei	r2,r2,3
 400212c:	10000c1e 	bne	r2,zero,4002160 <main+0x1b8c>
			{
				draw1(dig_blank, COLOR08_BLACK, 33, 0);
 4002130:	e0befe04 	addi	r2,fp,-1032
 4002134:	000f883a 	mov	r7,zero
 4002138:	01800844 	movi	r6,33
 400213c:	000b883a 	mov	r5,zero
 4002140:	1009883a 	mov	r4,r2
 4002144:	40004cc0 	call	40004cc <draw1>
				draw1(dig_three, COLOR08_RED, 33, 0);
 4002148:	e0bc5e04 	addi	r2,fp,-3720
 400214c:	000f883a 	mov	r7,zero
 4002150:	01800844 	movi	r6,33
 4002154:	01403804 	movi	r5,224
 4002158:	1009883a 	mov	r4,r2
 400215c:	40004cc0 	call	40004cc <draw1>
			}
			if(hour_b == 4)
 4002160:	e0b7d417 	ldw	r2,-8368(fp)
 4002164:	10800118 	cmpnei	r2,r2,4
 4002168:	10000c1e 	bne	r2,zero,400219c <main+0x1bc8>
			{
				draw1(dig_blank, COLOR08_BLACK, 33, 0);
 400216c:	e0befe04 	addi	r2,fp,-1032
 4002170:	000f883a 	mov	r7,zero
 4002174:	01800844 	movi	r6,33
 4002178:	000b883a 	mov	r5,zero
 400217c:	1009883a 	mov	r4,r2
 4002180:	40004cc0 	call	40004cc <draw1>
				draw1(dig_four, COLOR08_RED, 33, 0);
 4002184:	e0bcbe04 	addi	r2,fp,-3336
 4002188:	000f883a 	mov	r7,zero
 400218c:	01800844 	movi	r6,33
 4002190:	01403804 	movi	r5,224
 4002194:	1009883a 	mov	r4,r2
 4002198:	40004cc0 	call	40004cc <draw1>
			}
			if(hour_b == 5)
 400219c:	e0b7d417 	ldw	r2,-8368(fp)
 40021a0:	10800158 	cmpnei	r2,r2,5
 40021a4:	10000c1e 	bne	r2,zero,40021d8 <main+0x1c04>
			{
				draw1(dig_blank, COLOR08_BLACK, 33, 0);
 40021a8:	e0befe04 	addi	r2,fp,-1032
 40021ac:	000f883a 	mov	r7,zero
 40021b0:	01800844 	movi	r6,33
 40021b4:	000b883a 	mov	r5,zero
 40021b8:	1009883a 	mov	r4,r2
 40021bc:	40004cc0 	call	40004cc <draw1>
				draw1(dig_five, COLOR08_RED, 33, 0);
 40021c0:	e0bd1e04 	addi	r2,fp,-2952
 40021c4:	000f883a 	mov	r7,zero
 40021c8:	01800844 	movi	r6,33
 40021cc:	01403804 	movi	r5,224
 40021d0:	1009883a 	mov	r4,r2
 40021d4:	40004cc0 	call	40004cc <draw1>
			}
			if(hour_b == 6)
 40021d8:	e0b7d417 	ldw	r2,-8368(fp)
 40021dc:	10800198 	cmpnei	r2,r2,6
 40021e0:	10000c1e 	bne	r2,zero,4002214 <main+0x1c40>
			{
				draw1(dig_blank, COLOR08_BLACK, 33, 0);
 40021e4:	e0befe04 	addi	r2,fp,-1032
 40021e8:	000f883a 	mov	r7,zero
 40021ec:	01800844 	movi	r6,33
 40021f0:	000b883a 	mov	r5,zero
 40021f4:	1009883a 	mov	r4,r2
 40021f8:	40004cc0 	call	40004cc <draw1>
				draw1(dig_six, COLOR08_RED, 33, 0);
 40021fc:	e0bd7e04 	addi	r2,fp,-2568
 4002200:	000f883a 	mov	r7,zero
 4002204:	01800844 	movi	r6,33
 4002208:	01403804 	movi	r5,224
 400220c:	1009883a 	mov	r4,r2
 4002210:	40004cc0 	call	40004cc <draw1>
			}
			if(hour_b == 7)
 4002214:	e0b7d417 	ldw	r2,-8368(fp)
 4002218:	108001d8 	cmpnei	r2,r2,7
 400221c:	10000c1e 	bne	r2,zero,4002250 <main+0x1c7c>
			{
				draw1(dig_blank, COLOR08_BLACK, 33, 0);
 4002220:	e0befe04 	addi	r2,fp,-1032
 4002224:	000f883a 	mov	r7,zero
 4002228:	01800844 	movi	r6,33
 400222c:	000b883a 	mov	r5,zero
 4002230:	1009883a 	mov	r4,r2
 4002234:	40004cc0 	call	40004cc <draw1>
				draw1(dig_seven, COLOR08_RED, 33, 0);
 4002238:	e0bdde04 	addi	r2,fp,-2184
 400223c:	000f883a 	mov	r7,zero
 4002240:	01800844 	movi	r6,33
 4002244:	01403804 	movi	r5,224
 4002248:	1009883a 	mov	r4,r2
 400224c:	40004cc0 	call	40004cc <draw1>
			}
			if(hour_b == 8)
 4002250:	e0b7d417 	ldw	r2,-8368(fp)
 4002254:	10800218 	cmpnei	r2,r2,8
 4002258:	10000c1e 	bne	r2,zero,400228c <main+0x1cb8>
			{
				draw1(dig_blank, COLOR08_BLACK, 33, 0);
 400225c:	e0befe04 	addi	r2,fp,-1032
 4002260:	000f883a 	mov	r7,zero
 4002264:	01800844 	movi	r6,33
 4002268:	000b883a 	mov	r5,zero
 400226c:	1009883a 	mov	r4,r2
 4002270:	40004cc0 	call	40004cc <draw1>
				draw1(dig_eight, COLOR08_RED, 33, 0);
 4002274:	e0be3e04 	addi	r2,fp,-1800
 4002278:	000f883a 	mov	r7,zero
 400227c:	01800844 	movi	r6,33
 4002280:	01403804 	movi	r5,224
 4002284:	1009883a 	mov	r4,r2
 4002288:	40004cc0 	call	40004cc <draw1>
			}
			if(hour_b == 9)
 400228c:	e0b7d417 	ldw	r2,-8368(fp)
 4002290:	10800258 	cmpnei	r2,r2,9
 4002294:	10000c1e 	bne	r2,zero,40022c8 <main+0x1cf4>
			{
				draw1(dig_blank, COLOR08_BLACK, 33, 0);
 4002298:	e0befe04 	addi	r2,fp,-1032
 400229c:	000f883a 	mov	r7,zero
 40022a0:	01800844 	movi	r6,33
 40022a4:	000b883a 	mov	r5,zero
 40022a8:	1009883a 	mov	r4,r2
 40022ac:	40004cc0 	call	40004cc <draw1>
				draw1(dig_nine, COLOR08_RED, 33, 0);
 40022b0:	e0be9e04 	addi	r2,fp,-1416
 40022b4:	000f883a 	mov	r7,zero
 40022b8:	01800844 	movi	r6,33
 40022bc:	01403804 	movi	r5,224
 40022c0:	1009883a 	mov	r4,r2
 40022c4:	40004cc0 	call	40004cc <draw1>
			}




			if(hour_a == 0)
 40022c8:	e0b7d317 	ldw	r2,-8372(fp)
 40022cc:	10000c1e 	bne	r2,zero,4002300 <main+0x1d2c>
			{
				draw1(dig_blank, COLOR08_BLACK, 32, 0);
 40022d0:	e0befe04 	addi	r2,fp,-1032
 40022d4:	000f883a 	mov	r7,zero
 40022d8:	01800804 	movi	r6,32
 40022dc:	000b883a 	mov	r5,zero
 40022e0:	1009883a 	mov	r4,r2
 40022e4:	40004cc0 	call	40004cc <draw1>
				draw1(dig_zero, COLOR08_RED, 32, 0);
 40022e8:	e0bb3e04 	addi	r2,fp,-4872
 40022ec:	000f883a 	mov	r7,zero
 40022f0:	01800804 	movi	r6,32
 40022f4:	01403804 	movi	r5,224
 40022f8:	1009883a 	mov	r4,r2
 40022fc:	40004cc0 	call	40004cc <draw1>
			}
			if(hour_a == 1)
 4002300:	e0b7d317 	ldw	r2,-8372(fp)
 4002304:	10800058 	cmpnei	r2,r2,1
 4002308:	10000c1e 	bne	r2,zero,400233c <main+0x1d68>
			{
				draw1(dig_blank, COLOR08_BLACK, 32, 0);
 400230c:	e0befe04 	addi	r2,fp,-1032
 4002310:	000f883a 	mov	r7,zero
 4002314:	01800804 	movi	r6,32
 4002318:	000b883a 	mov	r5,zero
 400231c:	1009883a 	mov	r4,r2
 4002320:	40004cc0 	call	40004cc <draw1>
				draw1(dig_one, COLOR08_RED, 32, 0);
 4002324:	e0bb9e04 	addi	r2,fp,-4488
 4002328:	000f883a 	mov	r7,zero
 400232c:	01800804 	movi	r6,32
 4002330:	01403804 	movi	r5,224
 4002334:	1009883a 	mov	r4,r2
 4002338:	40004cc0 	call	40004cc <draw1>
			}
			if(hour_a == 2)
 400233c:	e0b7d317 	ldw	r2,-8372(fp)
 4002340:	10800098 	cmpnei	r2,r2,2
 4002344:	10000c1e 	bne	r2,zero,4002378 <main+0x1da4>
			{
				draw1(dig_blank, COLOR08_BLACK, 32, 0);
 4002348:	e0befe04 	addi	r2,fp,-1032
 400234c:	000f883a 	mov	r7,zero
 4002350:	01800804 	movi	r6,32
 4002354:	000b883a 	mov	r5,zero
 4002358:	1009883a 	mov	r4,r2
 400235c:	40004cc0 	call	40004cc <draw1>
				draw1(dig_two, COLOR08_RED, 32, 0);
 4002360:	e0bbfe04 	addi	r2,fp,-4104
 4002364:	000f883a 	mov	r7,zero
 4002368:	01800804 	movi	r6,32
 400236c:	01403804 	movi	r5,224
 4002370:	1009883a 	mov	r4,r2
 4002374:	40004cc0 	call	40004cc <draw1>
			}
			if(hour_a == 3)
 4002378:	e0b7d317 	ldw	r2,-8372(fp)
 400237c:	108000d8 	cmpnei	r2,r2,3
 4002380:	10000c1e 	bne	r2,zero,40023b4 <main+0x1de0>
			{
				draw1(dig_blank, COLOR08_BLACK, 32, 0);
 4002384:	e0befe04 	addi	r2,fp,-1032
 4002388:	000f883a 	mov	r7,zero
 400238c:	01800804 	movi	r6,32
 4002390:	000b883a 	mov	r5,zero
 4002394:	1009883a 	mov	r4,r2
 4002398:	40004cc0 	call	40004cc <draw1>
				draw1(dig_three, COLOR08_RED, 32, 0);
 400239c:	e0bc5e04 	addi	r2,fp,-3720
 40023a0:	000f883a 	mov	r7,zero
 40023a4:	01800804 	movi	r6,32
 40023a8:	01403804 	movi	r5,224
 40023ac:	1009883a 	mov	r4,r2
 40023b0:	40004cc0 	call	40004cc <draw1>
			}
			if(hour_a == 4)
 40023b4:	e0b7d317 	ldw	r2,-8372(fp)
 40023b8:	10800118 	cmpnei	r2,r2,4
 40023bc:	10000c1e 	bne	r2,zero,40023f0 <main+0x1e1c>
			{
				draw1(dig_blank, COLOR08_BLACK, 32, 0);
 40023c0:	e0befe04 	addi	r2,fp,-1032
 40023c4:	000f883a 	mov	r7,zero
 40023c8:	01800804 	movi	r6,32
 40023cc:	000b883a 	mov	r5,zero
 40023d0:	1009883a 	mov	r4,r2
 40023d4:	40004cc0 	call	40004cc <draw1>
				draw1(dig_four, COLOR08_RED, 32, 0);
 40023d8:	e0bcbe04 	addi	r2,fp,-3336
 40023dc:	000f883a 	mov	r7,zero
 40023e0:	01800804 	movi	r6,32
 40023e4:	01403804 	movi	r5,224
 40023e8:	1009883a 	mov	r4,r2
 40023ec:	40004cc0 	call	40004cc <draw1>
			}
			if(hour_a == 5)
 40023f0:	e0b7d317 	ldw	r2,-8372(fp)
 40023f4:	10800158 	cmpnei	r2,r2,5
 40023f8:	10000c1e 	bne	r2,zero,400242c <main+0x1e58>
			{
				draw1(dig_blank, COLOR08_BLACK, 32, 0);
 40023fc:	e0befe04 	addi	r2,fp,-1032
 4002400:	000f883a 	mov	r7,zero
 4002404:	01800804 	movi	r6,32
 4002408:	000b883a 	mov	r5,zero
 400240c:	1009883a 	mov	r4,r2
 4002410:	40004cc0 	call	40004cc <draw1>
				draw1(dig_five, COLOR08_RED, 32, 0);
 4002414:	e0bd1e04 	addi	r2,fp,-2952
 4002418:	000f883a 	mov	r7,zero
 400241c:	01800804 	movi	r6,32
 4002420:	01403804 	movi	r5,224
 4002424:	1009883a 	mov	r4,r2
 4002428:	40004cc0 	call	40004cc <draw1>
			}
			if(hour_a == 6)
 400242c:	e0b7d317 	ldw	r2,-8372(fp)
 4002430:	10800198 	cmpnei	r2,r2,6
 4002434:	10000c1e 	bne	r2,zero,4002468 <main+0x1e94>
			{
				draw1(dig_blank, COLOR08_BLACK, 32, 0);
 4002438:	e0befe04 	addi	r2,fp,-1032
 400243c:	000f883a 	mov	r7,zero
 4002440:	01800804 	movi	r6,32
 4002444:	000b883a 	mov	r5,zero
 4002448:	1009883a 	mov	r4,r2
 400244c:	40004cc0 	call	40004cc <draw1>
				draw1(dig_six, COLOR08_RED, 32, 0);
 4002450:	e0bd7e04 	addi	r2,fp,-2568
 4002454:	000f883a 	mov	r7,zero
 4002458:	01800804 	movi	r6,32
 400245c:	01403804 	movi	r5,224
 4002460:	1009883a 	mov	r4,r2
 4002464:	40004cc0 	call	40004cc <draw1>
			}
			if(hour_a == 7)
 4002468:	e0b7d317 	ldw	r2,-8372(fp)
 400246c:	108001d8 	cmpnei	r2,r2,7
 4002470:	10000c1e 	bne	r2,zero,40024a4 <main+0x1ed0>
			{
				draw1(dig_blank, COLOR08_BLACK, 32, 0);
 4002474:	e0befe04 	addi	r2,fp,-1032
 4002478:	000f883a 	mov	r7,zero
 400247c:	01800804 	movi	r6,32
 4002480:	000b883a 	mov	r5,zero
 4002484:	1009883a 	mov	r4,r2
 4002488:	40004cc0 	call	40004cc <draw1>
				draw1(dig_seven, COLOR08_RED, 32, 0);
 400248c:	e0bdde04 	addi	r2,fp,-2184
 4002490:	000f883a 	mov	r7,zero
 4002494:	01800804 	movi	r6,32
 4002498:	01403804 	movi	r5,224
 400249c:	1009883a 	mov	r4,r2
 40024a0:	40004cc0 	call	40004cc <draw1>
			}
			if(hour_a == 8)
 40024a4:	e0b7d317 	ldw	r2,-8372(fp)
 40024a8:	10800218 	cmpnei	r2,r2,8
 40024ac:	10000c1e 	bne	r2,zero,40024e0 <main+0x1f0c>
			{
				draw1(dig_blank, COLOR08_BLACK, 32, 0);
 40024b0:	e0befe04 	addi	r2,fp,-1032
 40024b4:	000f883a 	mov	r7,zero
 40024b8:	01800804 	movi	r6,32
 40024bc:	000b883a 	mov	r5,zero
 40024c0:	1009883a 	mov	r4,r2
 40024c4:	40004cc0 	call	40004cc <draw1>
				draw1(dig_eight, COLOR08_RED, 32, 0);
 40024c8:	e0be3e04 	addi	r2,fp,-1800
 40024cc:	000f883a 	mov	r7,zero
 40024d0:	01800804 	movi	r6,32
 40024d4:	01403804 	movi	r5,224
 40024d8:	1009883a 	mov	r4,r2
 40024dc:	40004cc0 	call	40004cc <draw1>
			}
			if(hour_a == 9)
 40024e0:	e0b7d317 	ldw	r2,-8372(fp)
 40024e4:	10800258 	cmpnei	r2,r2,9
 40024e8:	10000c1e 	bne	r2,zero,400251c <main+0x1f48>
			{
				draw1(dig_blank, COLOR08_BLACK, 32, 0);
 40024ec:	e0befe04 	addi	r2,fp,-1032
 40024f0:	000f883a 	mov	r7,zero
 40024f4:	01800804 	movi	r6,32
 40024f8:	000b883a 	mov	r5,zero
 40024fc:	1009883a 	mov	r4,r2
 4002500:	40004cc0 	call	40004cc <draw1>
				draw1(dig_nine, COLOR08_RED, 32, 0);
 4002504:	e0be9e04 	addi	r2,fp,-1416
 4002508:	000f883a 	mov	r7,zero
 400250c:	01800804 	movi	r6,32
 4002510:	01403804 	movi	r5,224
 4002514:	1009883a 	mov	r4,r2
 4002518:	40004cc0 	call	40004cc <draw1>
			}

			if(day_b == 0)
 400251c:	e0b7d617 	ldw	r2,-8360(fp)
 4002520:	10000c1e 	bne	r2,zero,4002554 <main+0x1f80>
			{
				draw1(dig_blank, COLOR08_BLACK, 30, 0);
 4002524:	e0befe04 	addi	r2,fp,-1032
 4002528:	000f883a 	mov	r7,zero
 400252c:	01800784 	movi	r6,30
 4002530:	000b883a 	mov	r5,zero
 4002534:	1009883a 	mov	r4,r2
 4002538:	40004cc0 	call	40004cc <draw1>
				draw1(dig_zero, COLOR08_RED, 30, 0);
 400253c:	e0bb3e04 	addi	r2,fp,-4872
 4002540:	000f883a 	mov	r7,zero
 4002544:	01800784 	movi	r6,30
 4002548:	01403804 	movi	r5,224
 400254c:	1009883a 	mov	r4,r2
 4002550:	40004cc0 	call	40004cc <draw1>
			}
			if(day_b == 1)
 4002554:	e0b7d617 	ldw	r2,-8360(fp)
 4002558:	10800058 	cmpnei	r2,r2,1
 400255c:	10000c1e 	bne	r2,zero,4002590 <main+0x1fbc>
			{
				draw1(dig_blank, COLOR08_BLACK, 30, 0);
 4002560:	e0befe04 	addi	r2,fp,-1032
 4002564:	000f883a 	mov	r7,zero
 4002568:	01800784 	movi	r6,30
 400256c:	000b883a 	mov	r5,zero
 4002570:	1009883a 	mov	r4,r2
 4002574:	40004cc0 	call	40004cc <draw1>
				draw1(dig_one, COLOR08_RED, 30, 0);
 4002578:	e0bb9e04 	addi	r2,fp,-4488
 400257c:	000f883a 	mov	r7,zero
 4002580:	01800784 	movi	r6,30
 4002584:	01403804 	movi	r5,224
 4002588:	1009883a 	mov	r4,r2
 400258c:	40004cc0 	call	40004cc <draw1>
			}
			if(day_b == 2)
 4002590:	e0b7d617 	ldw	r2,-8360(fp)
 4002594:	10800098 	cmpnei	r2,r2,2
 4002598:	10000c1e 	bne	r2,zero,40025cc <main+0x1ff8>
			{
				draw1(dig_blank, COLOR08_BLACK, 30, 0);
 400259c:	e0befe04 	addi	r2,fp,-1032
 40025a0:	000f883a 	mov	r7,zero
 40025a4:	01800784 	movi	r6,30
 40025a8:	000b883a 	mov	r5,zero
 40025ac:	1009883a 	mov	r4,r2
 40025b0:	40004cc0 	call	40004cc <draw1>
				draw1(dig_two, COLOR08_RED, 30, 0);
 40025b4:	e0bbfe04 	addi	r2,fp,-4104
 40025b8:	000f883a 	mov	r7,zero
 40025bc:	01800784 	movi	r6,30
 40025c0:	01403804 	movi	r5,224
 40025c4:	1009883a 	mov	r4,r2
 40025c8:	40004cc0 	call	40004cc <draw1>
			}
			if(day_b == 3)
 40025cc:	e0b7d617 	ldw	r2,-8360(fp)
 40025d0:	108000d8 	cmpnei	r2,r2,3
 40025d4:	10000c1e 	bne	r2,zero,4002608 <main+0x2034>
			{
				draw1(dig_blank, COLOR08_BLACK, 30, 0);
 40025d8:	e0befe04 	addi	r2,fp,-1032
 40025dc:	000f883a 	mov	r7,zero
 40025e0:	01800784 	movi	r6,30
 40025e4:	000b883a 	mov	r5,zero
 40025e8:	1009883a 	mov	r4,r2
 40025ec:	40004cc0 	call	40004cc <draw1>
				draw1(dig_three, COLOR08_RED, 30, 0);
 40025f0:	e0bc5e04 	addi	r2,fp,-3720
 40025f4:	000f883a 	mov	r7,zero
 40025f8:	01800784 	movi	r6,30
 40025fc:	01403804 	movi	r5,224
 4002600:	1009883a 	mov	r4,r2
 4002604:	40004cc0 	call	40004cc <draw1>
			}
			if(day_b == 4)
 4002608:	e0b7d617 	ldw	r2,-8360(fp)
 400260c:	10800118 	cmpnei	r2,r2,4
 4002610:	10000c1e 	bne	r2,zero,4002644 <main+0x2070>
			{
				draw1(dig_blank, COLOR08_BLACK, 30, 0);
 4002614:	e0befe04 	addi	r2,fp,-1032
 4002618:	000f883a 	mov	r7,zero
 400261c:	01800784 	movi	r6,30
 4002620:	000b883a 	mov	r5,zero
 4002624:	1009883a 	mov	r4,r2
 4002628:	40004cc0 	call	40004cc <draw1>
				draw1(dig_four, COLOR08_RED, 30, 0);
 400262c:	e0bcbe04 	addi	r2,fp,-3336
 4002630:	000f883a 	mov	r7,zero
 4002634:	01800784 	movi	r6,30
 4002638:	01403804 	movi	r5,224
 400263c:	1009883a 	mov	r4,r2
 4002640:	40004cc0 	call	40004cc <draw1>
			}
			if(day_b == 5)
 4002644:	e0b7d617 	ldw	r2,-8360(fp)
 4002648:	10800158 	cmpnei	r2,r2,5
 400264c:	10000c1e 	bne	r2,zero,4002680 <main+0x20ac>
			{
				draw1(dig_blank, COLOR08_BLACK, 30, 0);
 4002650:	e0befe04 	addi	r2,fp,-1032
 4002654:	000f883a 	mov	r7,zero
 4002658:	01800784 	movi	r6,30
 400265c:	000b883a 	mov	r5,zero
 4002660:	1009883a 	mov	r4,r2
 4002664:	40004cc0 	call	40004cc <draw1>
				draw1(dig_five, COLOR08_RED, 30, 0);
 4002668:	e0bd1e04 	addi	r2,fp,-2952
 400266c:	000f883a 	mov	r7,zero
 4002670:	01800784 	movi	r6,30
 4002674:	01403804 	movi	r5,224
 4002678:	1009883a 	mov	r4,r2
 400267c:	40004cc0 	call	40004cc <draw1>
			}
			if(day_b == 6)
 4002680:	e0b7d617 	ldw	r2,-8360(fp)
 4002684:	10800198 	cmpnei	r2,r2,6
 4002688:	10000c1e 	bne	r2,zero,40026bc <main+0x20e8>
			{
				draw1(dig_blank, COLOR08_BLACK, 30, 0);
 400268c:	e0befe04 	addi	r2,fp,-1032
 4002690:	000f883a 	mov	r7,zero
 4002694:	01800784 	movi	r6,30
 4002698:	000b883a 	mov	r5,zero
 400269c:	1009883a 	mov	r4,r2
 40026a0:	40004cc0 	call	40004cc <draw1>
				draw1(dig_six, COLOR08_RED, 30, 0);
 40026a4:	e0bd7e04 	addi	r2,fp,-2568
 40026a8:	000f883a 	mov	r7,zero
 40026ac:	01800784 	movi	r6,30
 40026b0:	01403804 	movi	r5,224
 40026b4:	1009883a 	mov	r4,r2
 40026b8:	40004cc0 	call	40004cc <draw1>
			}
			if(day_b == 7)
 40026bc:	e0b7d617 	ldw	r2,-8360(fp)
 40026c0:	108001d8 	cmpnei	r2,r2,7
 40026c4:	10000c1e 	bne	r2,zero,40026f8 <main+0x2124>
			{
				draw1(dig_blank, COLOR08_BLACK, 30, 0);
 40026c8:	e0befe04 	addi	r2,fp,-1032
 40026cc:	000f883a 	mov	r7,zero
 40026d0:	01800784 	movi	r6,30
 40026d4:	000b883a 	mov	r5,zero
 40026d8:	1009883a 	mov	r4,r2
 40026dc:	40004cc0 	call	40004cc <draw1>
				draw1(dig_seven, COLOR08_RED, 30, 0);
 40026e0:	e0bdde04 	addi	r2,fp,-2184
 40026e4:	000f883a 	mov	r7,zero
 40026e8:	01800784 	movi	r6,30
 40026ec:	01403804 	movi	r5,224
 40026f0:	1009883a 	mov	r4,r2
 40026f4:	40004cc0 	call	40004cc <draw1>
			}
			if(day_b == 8)
 40026f8:	e0b7d617 	ldw	r2,-8360(fp)
 40026fc:	10800218 	cmpnei	r2,r2,8
 4002700:	10000c1e 	bne	r2,zero,4002734 <main+0x2160>
			{
				draw1(dig_blank, COLOR08_BLACK, 30, 0);
 4002704:	e0befe04 	addi	r2,fp,-1032
 4002708:	000f883a 	mov	r7,zero
 400270c:	01800784 	movi	r6,30
 4002710:	000b883a 	mov	r5,zero
 4002714:	1009883a 	mov	r4,r2
 4002718:	40004cc0 	call	40004cc <draw1>
				draw1(dig_eight, COLOR08_RED, 30, 0);
 400271c:	e0be3e04 	addi	r2,fp,-1800
 4002720:	000f883a 	mov	r7,zero
 4002724:	01800784 	movi	r6,30
 4002728:	01403804 	movi	r5,224
 400272c:	1009883a 	mov	r4,r2
 4002730:	40004cc0 	call	40004cc <draw1>
			}
			if(day_b == 9)
 4002734:	e0b7d617 	ldw	r2,-8360(fp)
 4002738:	10800258 	cmpnei	r2,r2,9
 400273c:	10000c1e 	bne	r2,zero,4002770 <main+0x219c>
			{
				draw1(dig_blank, COLOR08_BLACK, 30, 0);
 4002740:	e0befe04 	addi	r2,fp,-1032
 4002744:	000f883a 	mov	r7,zero
 4002748:	01800784 	movi	r6,30
 400274c:	000b883a 	mov	r5,zero
 4002750:	1009883a 	mov	r4,r2
 4002754:	40004cc0 	call	40004cc <draw1>
				draw1(dig_nine, COLOR08_RED, 30, 0);
 4002758:	e0be9e04 	addi	r2,fp,-1416
 400275c:	000f883a 	mov	r7,zero
 4002760:	01800784 	movi	r6,30
 4002764:	01403804 	movi	r5,224
 4002768:	1009883a 	mov	r4,r2
 400276c:	40004cc0 	call	40004cc <draw1>
			}




			if(day_a == 0)
 4002770:	e0b7d517 	ldw	r2,-8364(fp)
 4002774:	10000c1e 	bne	r2,zero,40027a8 <main+0x21d4>
			{
				draw1(dig_blank, COLOR08_BLACK, 29, 0);
 4002778:	e0befe04 	addi	r2,fp,-1032
 400277c:	000f883a 	mov	r7,zero
 4002780:	01800744 	movi	r6,29
 4002784:	000b883a 	mov	r5,zero
 4002788:	1009883a 	mov	r4,r2
 400278c:	40004cc0 	call	40004cc <draw1>
				draw1(dig_zero, COLOR08_RED, 29, 0);
 4002790:	e0bb3e04 	addi	r2,fp,-4872
 4002794:	000f883a 	mov	r7,zero
 4002798:	01800744 	movi	r6,29
 400279c:	01403804 	movi	r5,224
 40027a0:	1009883a 	mov	r4,r2
 40027a4:	40004cc0 	call	40004cc <draw1>
			}
			if(day_a == 1)
 40027a8:	e0b7d517 	ldw	r2,-8364(fp)
 40027ac:	10800058 	cmpnei	r2,r2,1
 40027b0:	10000c1e 	bne	r2,zero,40027e4 <main+0x2210>
			{
				draw1(dig_blank, COLOR08_BLACK, 29, 0);
 40027b4:	e0befe04 	addi	r2,fp,-1032
 40027b8:	000f883a 	mov	r7,zero
 40027bc:	01800744 	movi	r6,29
 40027c0:	000b883a 	mov	r5,zero
 40027c4:	1009883a 	mov	r4,r2
 40027c8:	40004cc0 	call	40004cc <draw1>
				draw1(dig_one, COLOR08_RED, 29, 0);
 40027cc:	e0bb9e04 	addi	r2,fp,-4488
 40027d0:	000f883a 	mov	r7,zero
 40027d4:	01800744 	movi	r6,29
 40027d8:	01403804 	movi	r5,224
 40027dc:	1009883a 	mov	r4,r2
 40027e0:	40004cc0 	call	40004cc <draw1>
			}
			if(day_a == 2)
 40027e4:	e0b7d517 	ldw	r2,-8364(fp)
 40027e8:	10800098 	cmpnei	r2,r2,2
 40027ec:	10000c1e 	bne	r2,zero,4002820 <main+0x224c>
			{
				draw1(dig_blank, COLOR08_BLACK, 29, 0);
 40027f0:	e0befe04 	addi	r2,fp,-1032
 40027f4:	000f883a 	mov	r7,zero
 40027f8:	01800744 	movi	r6,29
 40027fc:	000b883a 	mov	r5,zero
 4002800:	1009883a 	mov	r4,r2
 4002804:	40004cc0 	call	40004cc <draw1>
				draw1(dig_two, COLOR08_RED, 29, 0);
 4002808:	e0bbfe04 	addi	r2,fp,-4104
 400280c:	000f883a 	mov	r7,zero
 4002810:	01800744 	movi	r6,29
 4002814:	01403804 	movi	r5,224
 4002818:	1009883a 	mov	r4,r2
 400281c:	40004cc0 	call	40004cc <draw1>
			}
			if(day_a == 3)
 4002820:	e0b7d517 	ldw	r2,-8364(fp)
 4002824:	108000d8 	cmpnei	r2,r2,3
 4002828:	10000c1e 	bne	r2,zero,400285c <main+0x2288>
			{
				draw1(dig_blank, COLOR08_BLACK, 29, 0);
 400282c:	e0befe04 	addi	r2,fp,-1032
 4002830:	000f883a 	mov	r7,zero
 4002834:	01800744 	movi	r6,29
 4002838:	000b883a 	mov	r5,zero
 400283c:	1009883a 	mov	r4,r2
 4002840:	40004cc0 	call	40004cc <draw1>
				draw1(dig_three, COLOR08_RED, 29, 0);
 4002844:	e0bc5e04 	addi	r2,fp,-3720
 4002848:	000f883a 	mov	r7,zero
 400284c:	01800744 	movi	r6,29
 4002850:	01403804 	movi	r5,224
 4002854:	1009883a 	mov	r4,r2
 4002858:	40004cc0 	call	40004cc <draw1>
			}
			if(day_a == 4)
 400285c:	e0b7d517 	ldw	r2,-8364(fp)
 4002860:	10800118 	cmpnei	r2,r2,4
 4002864:	10000c1e 	bne	r2,zero,4002898 <main+0x22c4>
			{
				draw1(dig_blank, COLOR08_BLACK, 29, 0);
 4002868:	e0befe04 	addi	r2,fp,-1032
 400286c:	000f883a 	mov	r7,zero
 4002870:	01800744 	movi	r6,29
 4002874:	000b883a 	mov	r5,zero
 4002878:	1009883a 	mov	r4,r2
 400287c:	40004cc0 	call	40004cc <draw1>
				draw1(dig_four, COLOR08_RED, 29, 0);
 4002880:	e0bcbe04 	addi	r2,fp,-3336
 4002884:	000f883a 	mov	r7,zero
 4002888:	01800744 	movi	r6,29
 400288c:	01403804 	movi	r5,224
 4002890:	1009883a 	mov	r4,r2
 4002894:	40004cc0 	call	40004cc <draw1>
			}
			if(day_a == 5)
 4002898:	e0b7d517 	ldw	r2,-8364(fp)
 400289c:	10800158 	cmpnei	r2,r2,5
 40028a0:	10000c1e 	bne	r2,zero,40028d4 <main+0x2300>
			{
				draw1(dig_blank, COLOR08_BLACK, 29, 0);
 40028a4:	e0befe04 	addi	r2,fp,-1032
 40028a8:	000f883a 	mov	r7,zero
 40028ac:	01800744 	movi	r6,29
 40028b0:	000b883a 	mov	r5,zero
 40028b4:	1009883a 	mov	r4,r2
 40028b8:	40004cc0 	call	40004cc <draw1>
				draw1(dig_five, COLOR08_RED, 29, 0);
 40028bc:	e0bd1e04 	addi	r2,fp,-2952
 40028c0:	000f883a 	mov	r7,zero
 40028c4:	01800744 	movi	r6,29
 40028c8:	01403804 	movi	r5,224
 40028cc:	1009883a 	mov	r4,r2
 40028d0:	40004cc0 	call	40004cc <draw1>
			}
			if(day_a == 6)
 40028d4:	e0b7d517 	ldw	r2,-8364(fp)
 40028d8:	10800198 	cmpnei	r2,r2,6
 40028dc:	10000c1e 	bne	r2,zero,4002910 <main+0x233c>
			{
				draw1(dig_blank, COLOR08_BLACK, 29, 0);
 40028e0:	e0befe04 	addi	r2,fp,-1032
 40028e4:	000f883a 	mov	r7,zero
 40028e8:	01800744 	movi	r6,29
 40028ec:	000b883a 	mov	r5,zero
 40028f0:	1009883a 	mov	r4,r2
 40028f4:	40004cc0 	call	40004cc <draw1>
				draw1(dig_six, COLOR08_RED, 29, 0);
 40028f8:	e0bd7e04 	addi	r2,fp,-2568
 40028fc:	000f883a 	mov	r7,zero
 4002900:	01800744 	movi	r6,29
 4002904:	01403804 	movi	r5,224
 4002908:	1009883a 	mov	r4,r2
 400290c:	40004cc0 	call	40004cc <draw1>
			}
			if(day_a == 7)
 4002910:	e0b7d517 	ldw	r2,-8364(fp)
 4002914:	108001d8 	cmpnei	r2,r2,7
 4002918:	10000c1e 	bne	r2,zero,400294c <main+0x2378>
			{
				draw1(dig_blank, COLOR08_BLACK, 29, 0);
 400291c:	e0befe04 	addi	r2,fp,-1032
 4002920:	000f883a 	mov	r7,zero
 4002924:	01800744 	movi	r6,29
 4002928:	000b883a 	mov	r5,zero
 400292c:	1009883a 	mov	r4,r2
 4002930:	40004cc0 	call	40004cc <draw1>
				draw1(dig_seven, COLOR08_RED, 29, 0);
 4002934:	e0bdde04 	addi	r2,fp,-2184
 4002938:	000f883a 	mov	r7,zero
 400293c:	01800744 	movi	r6,29
 4002940:	01403804 	movi	r5,224
 4002944:	1009883a 	mov	r4,r2
 4002948:	40004cc0 	call	40004cc <draw1>
			}
			if(day_a == 8)
 400294c:	e0b7d517 	ldw	r2,-8364(fp)
 4002950:	10800218 	cmpnei	r2,r2,8
 4002954:	10000c1e 	bne	r2,zero,4002988 <main+0x23b4>
			{
				draw1(dig_blank, COLOR08_BLACK, 29, 0);
 4002958:	e0befe04 	addi	r2,fp,-1032
 400295c:	000f883a 	mov	r7,zero
 4002960:	01800744 	movi	r6,29
 4002964:	000b883a 	mov	r5,zero
 4002968:	1009883a 	mov	r4,r2
 400296c:	40004cc0 	call	40004cc <draw1>
				draw1(dig_eight, COLOR08_RED, 29, 0);
 4002970:	e0be3e04 	addi	r2,fp,-1800
 4002974:	000f883a 	mov	r7,zero
 4002978:	01800744 	movi	r6,29
 400297c:	01403804 	movi	r5,224
 4002980:	1009883a 	mov	r4,r2
 4002984:	40004cc0 	call	40004cc <draw1>
			}
			if(day_a == 9)
 4002988:	e0b7d517 	ldw	r2,-8364(fp)
 400298c:	10800258 	cmpnei	r2,r2,9
 4002990:	10000c1e 	bne	r2,zero,40029c4 <main+0x23f0>
			{
				draw1(dig_blank, COLOR08_BLACK, 29, 0);
 4002994:	e0befe04 	addi	r2,fp,-1032
 4002998:	000f883a 	mov	r7,zero
 400299c:	01800744 	movi	r6,29
 40029a0:	000b883a 	mov	r5,zero
 40029a4:	1009883a 	mov	r4,r2
 40029a8:	40004cc0 	call	40004cc <draw1>
				draw1(dig_nine, COLOR08_RED, 29, 0);
 40029ac:	e0be9e04 	addi	r2,fp,-1416
 40029b0:	000f883a 	mov	r7,zero
 40029b4:	01800744 	movi	r6,29
 40029b8:	01403804 	movi	r5,224
 40029bc:	1009883a 	mov	r4,r2
 40029c0:	40004cc0 	call	40004cc <draw1>
			}

		}
		if(button==1 && y>0)//up
 40029c4:	e0b7da17 	ldw	r2,-8344(fp)
 40029c8:	10800058 	cmpnei	r2,r2,1
 40029cc:	1000b71e 	bne	r2,zero,4002cac <main+0x26d8>
 40029d0:	e0b7c217 	ldw	r2,-8440(fp)
 40029d4:	0080b50e 	bge	zero,r2,4002cac <main+0x26d8>
		{
			y--;
 40029d8:	e0b7c217 	ldw	r2,-8440(fp)
 40029dc:	10bfffc4 	addi	r2,r2,-1
 40029e0:	e0b7c215 	stw	r2,-8440(fp)
			draw(square, COLOR08_BLACK, x,y+3);
 40029e4:	e0b7c217 	ldw	r2,-8440(fp)
 40029e8:	10c000c4 	addi	r3,r2,3
 40029ec:	e0b7de04 	addi	r2,fp,-8328
 40029f0:	180f883a 	mov	r7,r3
 40029f4:	e1b7c117 	ldw	r6,-8444(fp)
 40029f8:	000b883a 	mov	r5,zero
 40029fc:	1009883a 	mov	r4,r2
 4002a00:	40003c80 	call	40003c8 <draw>
			printf("x: %i , y: %i , number %i \n", x, y, gameboard[y][x]);
 4002a04:	e0b7c217 	ldw	r2,-8440(fp)
 4002a08:	01400504 	movi	r5,20
 4002a0c:	1009883a 	mov	r4,r2
 4002a10:	40191000 	call	4019100 <__mulsi3>
 4002a14:	1007883a 	mov	r3,r2
 4002a18:	e0b7c117 	ldw	r2,-8444(fp)
 4002a1c:	1885883a 	add	r2,r3,r2
 4002a20:	1085883a 	add	r2,r2,r2
 4002a24:	1085883a 	add	r2,r2,r2
 4002a28:	e0f7c104 	addi	r3,fp,-8444
 4002a2c:	1885883a 	add	r2,r3,r2
 4002a30:	10879d04 	addi	r2,r2,7796
 4002a34:	10800017 	ldw	r2,0(r2)
 4002a38:	100f883a 	mov	r7,r2
 4002a3c:	e1b7c217 	ldw	r6,-8440(fp)
 4002a40:	e177c117 	ldw	r5,-8444(fp)
 4002a44:	010100f4 	movhi	r4,1027
 4002a48:	212a7504 	addi	r4,r4,-22060
 4002a4c:	40193c80 	call	40193c8 <printf>

			//y chords
			if(y==0)//0
 4002a50:	e0b7c217 	ldw	r2,-8440(fp)
 4002a54:	1000101e 	bne	r2,zero,4002a98 <main+0x24c4>
			{
				draw(white, COLOR08_BLACK, 19,1 );
 4002a58:	e0b95e04 	addi	r2,fp,-6792
 4002a5c:	01c00044 	movi	r7,1
 4002a60:	018004c4 	movi	r6,19
 4002a64:	000b883a 	mov	r5,zero
 4002a68:	1009883a 	mov	r4,r2
 4002a6c:	40003c80 	call	40003c8 <draw>
				draw(zero, COLOR08_GRAY, 19,1 );
 4002a70:	01c00044 	movi	r7,1
 4002a74:	018004c4 	movi	r6,19
 4002a78:	01402484 	movi	r5,146
 4002a7c:	010100f4 	movhi	r4,1027
 4002a80:	21312a04 	addi	r4,r4,-15192
 4002a84:	40003c80 	call	40003c8 <draw>
				IOWR_ALTERA_AVALON_PIO_DATA (KEY_READ_REQ_BASE, 1);
 4002a88:	00c00044 	movi	r3,1
 4002a8c:	008200b4 	movhi	r2,2050
 4002a90:	10841804 	addi	r2,r2,4192
 4002a94:	10c00035 	stwio	r3,0(r2)
			}

			if(y==1)//1
 4002a98:	e0b7c217 	ldw	r2,-8440(fp)
 4002a9c:	10800058 	cmpnei	r2,r2,1
 4002aa0:	1000101e 	bne	r2,zero,4002ae4 <main+0x2510>
			{
				draw(white, COLOR08_BLACK, 19,1 );
 4002aa4:	e0b95e04 	addi	r2,fp,-6792
 4002aa8:	01c00044 	movi	r7,1
 4002aac:	018004c4 	movi	r6,19
 4002ab0:	000b883a 	mov	r5,zero
 4002ab4:	1009883a 	mov	r4,r2
 4002ab8:	40003c80 	call	40003c8 <draw>
				draw(one, COLOR08_GRAY, 19,1 );
 4002abc:	01c00044 	movi	r7,1
 4002ac0:	018004c4 	movi	r6,19
 4002ac4:	01402484 	movi	r5,146
 4002ac8:	010100f4 	movhi	r4,1027
 4002acc:	2132aa04 	addi	r4,r4,-13656
 4002ad0:	40003c80 	call	40003c8 <draw>
				IOWR_ALTERA_AVALON_PIO_DATA (KEY_READ_REQ_BASE, 1);
 4002ad4:	00c00044 	movi	r3,1
 4002ad8:	008200b4 	movhi	r2,2050
 4002adc:	10841804 	addi	r2,r2,4192
 4002ae0:	10c00035 	stwio	r3,0(r2)
			}

			if(y==2)//2
 4002ae4:	e0b7c217 	ldw	r2,-8440(fp)
 4002ae8:	10800098 	cmpnei	r2,r2,2
 4002aec:	1000101e 	bne	r2,zero,4002b30 <main+0x255c>
			{
				draw(white, COLOR08_BLACK, 19,1 );
 4002af0:	e0b95e04 	addi	r2,fp,-6792
 4002af4:	01c00044 	movi	r7,1
 4002af8:	018004c4 	movi	r6,19
 4002afc:	000b883a 	mov	r5,zero
 4002b00:	1009883a 	mov	r4,r2
 4002b04:	40003c80 	call	40003c8 <draw>
				draw(two, COLOR08_GRAY, 19,1 );
 4002b08:	01c00044 	movi	r7,1
 4002b0c:	018004c4 	movi	r6,19
 4002b10:	01402484 	movi	r5,146
 4002b14:	010100f4 	movhi	r4,1027
 4002b18:	21342a04 	addi	r4,r4,-12120
 4002b1c:	40003c80 	call	40003c8 <draw>
				IOWR_ALTERA_AVALON_PIO_DATA (KEY_READ_REQ_BASE, 1);
 4002b20:	00c00044 	movi	r3,1
 4002b24:	008200b4 	movhi	r2,2050
 4002b28:	10841804 	addi	r2,r2,4192
 4002b2c:	10c00035 	stwio	r3,0(r2)
			}

			if(y==3)//3
 4002b30:	e0b7c217 	ldw	r2,-8440(fp)
 4002b34:	108000d8 	cmpnei	r2,r2,3
 4002b38:	1000101e 	bne	r2,zero,4002b7c <main+0x25a8>
			{
				draw(white, COLOR08_BLACK, 19,1 );
 4002b3c:	e0b95e04 	addi	r2,fp,-6792
 4002b40:	01c00044 	movi	r7,1
 4002b44:	018004c4 	movi	r6,19
 4002b48:	000b883a 	mov	r5,zero
 4002b4c:	1009883a 	mov	r4,r2
 4002b50:	40003c80 	call	40003c8 <draw>
				draw(three, COLOR08_GRAY, 19,1 );
 4002b54:	01c00044 	movi	r7,1
 4002b58:	018004c4 	movi	r6,19
 4002b5c:	01402484 	movi	r5,146
 4002b60:	010100f4 	movhi	r4,1027
 4002b64:	2135aa04 	addi	r4,r4,-10584
 4002b68:	40003c80 	call	40003c8 <draw>
				IOWR_ALTERA_AVALON_PIO_DATA (KEY_READ_REQ_BASE, 1);
 4002b6c:	00c00044 	movi	r3,1
 4002b70:	008200b4 	movhi	r2,2050
 4002b74:	10841804 	addi	r2,r2,4192
 4002b78:	10c00035 	stwio	r3,0(r2)
			}

			if(y==4)//4
 4002b7c:	e0b7c217 	ldw	r2,-8440(fp)
 4002b80:	10800118 	cmpnei	r2,r2,4
 4002b84:	1000101e 	bne	r2,zero,4002bc8 <main+0x25f4>
			{
				draw(white, COLOR08_BLACK, 19,1 );
 4002b88:	e0b95e04 	addi	r2,fp,-6792
 4002b8c:	01c00044 	movi	r7,1
 4002b90:	018004c4 	movi	r6,19
 4002b94:	000b883a 	mov	r5,zero
 4002b98:	1009883a 	mov	r4,r2
 4002b9c:	40003c80 	call	40003c8 <draw>
				draw(four, COLOR08_GRAY, 19,1 );
 4002ba0:	01c00044 	movi	r7,1
 4002ba4:	018004c4 	movi	r6,19
 4002ba8:	01402484 	movi	r5,146
 4002bac:	010100f4 	movhi	r4,1027
 4002bb0:	21372a04 	addi	r4,r4,-9048
 4002bb4:	40003c80 	call	40003c8 <draw>
				IOWR_ALTERA_AVALON_PIO_DATA (KEY_READ_REQ_BASE, 1);
 4002bb8:	00c00044 	movi	r3,1
 4002bbc:	008200b4 	movhi	r2,2050
 4002bc0:	10841804 	addi	r2,r2,4192
 4002bc4:	10c00035 	stwio	r3,0(r2)
			}

			if(y==5)//5
 4002bc8:	e0b7c217 	ldw	r2,-8440(fp)
 4002bcc:	10800158 	cmpnei	r2,r2,5
 4002bd0:	1000101e 	bne	r2,zero,4002c14 <main+0x2640>
			{
				draw(white, COLOR08_BLACK, 19,1 );
 4002bd4:	e0b95e04 	addi	r2,fp,-6792
 4002bd8:	01c00044 	movi	r7,1
 4002bdc:	018004c4 	movi	r6,19
 4002be0:	000b883a 	mov	r5,zero
 4002be4:	1009883a 	mov	r4,r2
 4002be8:	40003c80 	call	40003c8 <draw>
				draw(five, COLOR08_GRAY, 19,1 );
 4002bec:	01c00044 	movi	r7,1
 4002bf0:	018004c4 	movi	r6,19
 4002bf4:	01402484 	movi	r5,146
 4002bf8:	010100f4 	movhi	r4,1027
 4002bfc:	2138aa04 	addi	r4,r4,-7512
 4002c00:	40003c80 	call	40003c8 <draw>
				IOWR_ALTERA_AVALON_PIO_DATA (KEY_READ_REQ_BASE, 1);
 4002c04:	00c00044 	movi	r3,1
 4002c08:	008200b4 	movhi	r2,2050
 4002c0c:	10841804 	addi	r2,r2,4192
 4002c10:	10c00035 	stwio	r3,0(r2)
			}

			if(y==6)//6
 4002c14:	e0b7c217 	ldw	r2,-8440(fp)
 4002c18:	10800198 	cmpnei	r2,r2,6
 4002c1c:	1000101e 	bne	r2,zero,4002c60 <main+0x268c>
			{
				draw(white, COLOR08_BLACK, 19,1 );
 4002c20:	e0b95e04 	addi	r2,fp,-6792
 4002c24:	01c00044 	movi	r7,1
 4002c28:	018004c4 	movi	r6,19
 4002c2c:	000b883a 	mov	r5,zero
 4002c30:	1009883a 	mov	r4,r2
 4002c34:	40003c80 	call	40003c8 <draw>
				draw(six, COLOR08_GRAY, 19,1 );
 4002c38:	01c00044 	movi	r7,1
 4002c3c:	018004c4 	movi	r6,19
 4002c40:	01402484 	movi	r5,146
 4002c44:	010100f4 	movhi	r4,1027
 4002c48:	213a2a04 	addi	r4,r4,-5976
 4002c4c:	40003c80 	call	40003c8 <draw>
				IOWR_ALTERA_AVALON_PIO_DATA (KEY_READ_REQ_BASE, 1);
 4002c50:	00c00044 	movi	r3,1
 4002c54:	008200b4 	movhi	r2,2050
 4002c58:	10841804 	addi	r2,r2,4192
 4002c5c:	10c00035 	stwio	r3,0(r2)
			}

			if(y==7)//7
 4002c60:	e0b7c217 	ldw	r2,-8440(fp)
 4002c64:	108001d8 	cmpnei	r2,r2,7
 4002c68:	1000101e 	bne	r2,zero,4002cac <main+0x26d8>
			{
				draw(white, COLOR08_BLACK, 19,1 );
 4002c6c:	e0b95e04 	addi	r2,fp,-6792
 4002c70:	01c00044 	movi	r7,1
 4002c74:	018004c4 	movi	r6,19
 4002c78:	000b883a 	mov	r5,zero
 4002c7c:	1009883a 	mov	r4,r2
 4002c80:	40003c80 	call	40003c8 <draw>
				draw(seven, COLOR08_GRAY, 19,1 );
 4002c84:	01c00044 	movi	r7,1
 4002c88:	018004c4 	movi	r6,19
 4002c8c:	01402484 	movi	r5,146
 4002c90:	010100f4 	movhi	r4,1027
 4002c94:	213baa04 	addi	r4,r4,-4440
 4002c98:	40003c80 	call	40003c8 <draw>
				IOWR_ALTERA_AVALON_PIO_DATA (KEY_READ_REQ_BASE, 1);
 4002c9c:	00c00044 	movi	r3,1
 4002ca0:	008200b4 	movhi	r2,2050
 4002ca4:	10841804 	addi	r2,r2,4192
 4002ca8:	10c00035 	stwio	r3,0(r2)



		}

		if(button==2 && y<7)//down
 4002cac:	e0b7da17 	ldw	r2,-8344(fp)
 4002cb0:	10800098 	cmpnei	r2,r2,2
 4002cb4:	1000b81e 	bne	r2,zero,4002f98 <main+0x29c4>
 4002cb8:	e0b7c217 	ldw	r2,-8440(fp)
 4002cbc:	108001c8 	cmpgei	r2,r2,7
 4002cc0:	1000b51e 	bne	r2,zero,4002f98 <main+0x29c4>
		{
			y++;
 4002cc4:	e0b7c217 	ldw	r2,-8440(fp)
 4002cc8:	10800044 	addi	r2,r2,1
 4002ccc:	e0b7c215 	stw	r2,-8440(fp)
			draw(square, COLOR08_BLACK, x,y+1);
 4002cd0:	e0b7c217 	ldw	r2,-8440(fp)
 4002cd4:	10c00044 	addi	r3,r2,1
 4002cd8:	e0b7de04 	addi	r2,fp,-8328
 4002cdc:	180f883a 	mov	r7,r3
 4002ce0:	e1b7c117 	ldw	r6,-8444(fp)
 4002ce4:	000b883a 	mov	r5,zero
 4002ce8:	1009883a 	mov	r4,r2
 4002cec:	40003c80 	call	40003c8 <draw>
			printf("x: %i , y: %i , number %i \n", x, y, gameboard[y][x]);
 4002cf0:	e0b7c217 	ldw	r2,-8440(fp)
 4002cf4:	01400504 	movi	r5,20
 4002cf8:	1009883a 	mov	r4,r2
 4002cfc:	40191000 	call	4019100 <__mulsi3>
 4002d00:	1007883a 	mov	r3,r2
 4002d04:	e0b7c117 	ldw	r2,-8444(fp)
 4002d08:	1885883a 	add	r2,r3,r2
 4002d0c:	1085883a 	add	r2,r2,r2
 4002d10:	1085883a 	add	r2,r2,r2
 4002d14:	e0f7c104 	addi	r3,fp,-8444
 4002d18:	1885883a 	add	r2,r3,r2
 4002d1c:	10879d04 	addi	r2,r2,7796
 4002d20:	10800017 	ldw	r2,0(r2)
 4002d24:	100f883a 	mov	r7,r2
 4002d28:	e1b7c217 	ldw	r6,-8440(fp)
 4002d2c:	e177c117 	ldw	r5,-8444(fp)
 4002d30:	010100f4 	movhi	r4,1027
 4002d34:	212a7504 	addi	r4,r4,-22060
 4002d38:	40193c80 	call	40193c8 <printf>

			//y chords
			if(y==0)//0
 4002d3c:	e0b7c217 	ldw	r2,-8440(fp)
 4002d40:	1000101e 	bne	r2,zero,4002d84 <main+0x27b0>
			{
				draw(white, COLOR08_BLACK, 19,1 );
 4002d44:	e0b95e04 	addi	r2,fp,-6792
 4002d48:	01c00044 	movi	r7,1
 4002d4c:	018004c4 	movi	r6,19
 4002d50:	000b883a 	mov	r5,zero
 4002d54:	1009883a 	mov	r4,r2
 4002d58:	40003c80 	call	40003c8 <draw>
				draw(zero, COLOR08_GRAY, 19,1 );
 4002d5c:	01c00044 	movi	r7,1
 4002d60:	018004c4 	movi	r6,19
 4002d64:	01402484 	movi	r5,146
 4002d68:	010100f4 	movhi	r4,1027
 4002d6c:	21312a04 	addi	r4,r4,-15192
 4002d70:	40003c80 	call	40003c8 <draw>
				IOWR_ALTERA_AVALON_PIO_DATA (KEY_READ_REQ_BASE, 1);
 4002d74:	00c00044 	movi	r3,1
 4002d78:	008200b4 	movhi	r2,2050
 4002d7c:	10841804 	addi	r2,r2,4192
 4002d80:	10c00035 	stwio	r3,0(r2)
			}

			if(y==1)//1
 4002d84:	e0b7c217 	ldw	r2,-8440(fp)
 4002d88:	10800058 	cmpnei	r2,r2,1
 4002d8c:	1000101e 	bne	r2,zero,4002dd0 <main+0x27fc>
			{
				draw(white, COLOR08_BLACK, 19,1 );
 4002d90:	e0b95e04 	addi	r2,fp,-6792
 4002d94:	01c00044 	movi	r7,1
 4002d98:	018004c4 	movi	r6,19
 4002d9c:	000b883a 	mov	r5,zero
 4002da0:	1009883a 	mov	r4,r2
 4002da4:	40003c80 	call	40003c8 <draw>
				draw(one, COLOR08_GRAY, 19,1 );
 4002da8:	01c00044 	movi	r7,1
 4002dac:	018004c4 	movi	r6,19
 4002db0:	01402484 	movi	r5,146
 4002db4:	010100f4 	movhi	r4,1027
 4002db8:	2132aa04 	addi	r4,r4,-13656
 4002dbc:	40003c80 	call	40003c8 <draw>
				IOWR_ALTERA_AVALON_PIO_DATA (KEY_READ_REQ_BASE, 1);
 4002dc0:	00c00044 	movi	r3,1
 4002dc4:	008200b4 	movhi	r2,2050
 4002dc8:	10841804 	addi	r2,r2,4192
 4002dcc:	10c00035 	stwio	r3,0(r2)
			}

			if(y==2)//2
 4002dd0:	e0b7c217 	ldw	r2,-8440(fp)
 4002dd4:	10800098 	cmpnei	r2,r2,2
 4002dd8:	1000101e 	bne	r2,zero,4002e1c <main+0x2848>
			{
				draw(white, COLOR08_BLACK, 19,1 );
 4002ddc:	e0b95e04 	addi	r2,fp,-6792
 4002de0:	01c00044 	movi	r7,1
 4002de4:	018004c4 	movi	r6,19
 4002de8:	000b883a 	mov	r5,zero
 4002dec:	1009883a 	mov	r4,r2
 4002df0:	40003c80 	call	40003c8 <draw>
				draw(two, COLOR08_GRAY, 19,1 );
 4002df4:	01c00044 	movi	r7,1
 4002df8:	018004c4 	movi	r6,19
 4002dfc:	01402484 	movi	r5,146
 4002e00:	010100f4 	movhi	r4,1027
 4002e04:	21342a04 	addi	r4,r4,-12120
 4002e08:	40003c80 	call	40003c8 <draw>
				IOWR_ALTERA_AVALON_PIO_DATA (KEY_READ_REQ_BASE, 1);
 4002e0c:	00c00044 	movi	r3,1
 4002e10:	008200b4 	movhi	r2,2050
 4002e14:	10841804 	addi	r2,r2,4192
 4002e18:	10c00035 	stwio	r3,0(r2)
			}

			if(y==3)//3
 4002e1c:	e0b7c217 	ldw	r2,-8440(fp)
 4002e20:	108000d8 	cmpnei	r2,r2,3
 4002e24:	1000101e 	bne	r2,zero,4002e68 <main+0x2894>
			{
				draw(white, COLOR08_BLACK, 19,1 );
 4002e28:	e0b95e04 	addi	r2,fp,-6792
 4002e2c:	01c00044 	movi	r7,1
 4002e30:	018004c4 	movi	r6,19
 4002e34:	000b883a 	mov	r5,zero
 4002e38:	1009883a 	mov	r4,r2
 4002e3c:	40003c80 	call	40003c8 <draw>
				draw(three, COLOR08_GRAY, 19,1 );
 4002e40:	01c00044 	movi	r7,1
 4002e44:	018004c4 	movi	r6,19
 4002e48:	01402484 	movi	r5,146
 4002e4c:	010100f4 	movhi	r4,1027
 4002e50:	2135aa04 	addi	r4,r4,-10584
 4002e54:	40003c80 	call	40003c8 <draw>
				IOWR_ALTERA_AVALON_PIO_DATA (KEY_READ_REQ_BASE, 1);
 4002e58:	00c00044 	movi	r3,1
 4002e5c:	008200b4 	movhi	r2,2050
 4002e60:	10841804 	addi	r2,r2,4192
 4002e64:	10c00035 	stwio	r3,0(r2)
			}

			if(y==4)//4
 4002e68:	e0b7c217 	ldw	r2,-8440(fp)
 4002e6c:	10800118 	cmpnei	r2,r2,4
 4002e70:	1000101e 	bne	r2,zero,4002eb4 <main+0x28e0>
			{
				draw(white, COLOR08_BLACK, 19,1 );
 4002e74:	e0b95e04 	addi	r2,fp,-6792
 4002e78:	01c00044 	movi	r7,1
 4002e7c:	018004c4 	movi	r6,19
 4002e80:	000b883a 	mov	r5,zero
 4002e84:	1009883a 	mov	r4,r2
 4002e88:	40003c80 	call	40003c8 <draw>
				draw(four, COLOR08_GRAY, 19,1 );
 4002e8c:	01c00044 	movi	r7,1
 4002e90:	018004c4 	movi	r6,19
 4002e94:	01402484 	movi	r5,146
 4002e98:	010100f4 	movhi	r4,1027
 4002e9c:	21372a04 	addi	r4,r4,-9048
 4002ea0:	40003c80 	call	40003c8 <draw>
				IOWR_ALTERA_AVALON_PIO_DATA (KEY_READ_REQ_BASE, 1);
 4002ea4:	00c00044 	movi	r3,1
 4002ea8:	008200b4 	movhi	r2,2050
 4002eac:	10841804 	addi	r2,r2,4192
 4002eb0:	10c00035 	stwio	r3,0(r2)
			}

			if(y==5)//5
 4002eb4:	e0b7c217 	ldw	r2,-8440(fp)
 4002eb8:	10800158 	cmpnei	r2,r2,5
 4002ebc:	1000101e 	bne	r2,zero,4002f00 <main+0x292c>
			{
				draw(white, COLOR08_BLACK, 19,1 );
 4002ec0:	e0b95e04 	addi	r2,fp,-6792
 4002ec4:	01c00044 	movi	r7,1
 4002ec8:	018004c4 	movi	r6,19
 4002ecc:	000b883a 	mov	r5,zero
 4002ed0:	1009883a 	mov	r4,r2
 4002ed4:	40003c80 	call	40003c8 <draw>
				draw(five, COLOR08_GRAY, 19,1 );
 4002ed8:	01c00044 	movi	r7,1
 4002edc:	018004c4 	movi	r6,19
 4002ee0:	01402484 	movi	r5,146
 4002ee4:	010100f4 	movhi	r4,1027
 4002ee8:	2138aa04 	addi	r4,r4,-7512
 4002eec:	40003c80 	call	40003c8 <draw>
				IOWR_ALTERA_AVALON_PIO_DATA (KEY_READ_REQ_BASE, 1);
 4002ef0:	00c00044 	movi	r3,1
 4002ef4:	008200b4 	movhi	r2,2050
 4002ef8:	10841804 	addi	r2,r2,4192
 4002efc:	10c00035 	stwio	r3,0(r2)
			}

			if(y==6)//6
 4002f00:	e0b7c217 	ldw	r2,-8440(fp)
 4002f04:	10800198 	cmpnei	r2,r2,6
 4002f08:	1000101e 	bne	r2,zero,4002f4c <main+0x2978>
			{
				draw(white, COLOR08_BLACK, 19,1 );
 4002f0c:	e0b95e04 	addi	r2,fp,-6792
 4002f10:	01c00044 	movi	r7,1
 4002f14:	018004c4 	movi	r6,19
 4002f18:	000b883a 	mov	r5,zero
 4002f1c:	1009883a 	mov	r4,r2
 4002f20:	40003c80 	call	40003c8 <draw>
				draw(six, COLOR08_GRAY, 19,1 );
 4002f24:	01c00044 	movi	r7,1
 4002f28:	018004c4 	movi	r6,19
 4002f2c:	01402484 	movi	r5,146
 4002f30:	010100f4 	movhi	r4,1027
 4002f34:	213a2a04 	addi	r4,r4,-5976
 4002f38:	40003c80 	call	40003c8 <draw>
				IOWR_ALTERA_AVALON_PIO_DATA (KEY_READ_REQ_BASE, 1);
 4002f3c:	00c00044 	movi	r3,1
 4002f40:	008200b4 	movhi	r2,2050
 4002f44:	10841804 	addi	r2,r2,4192
 4002f48:	10c00035 	stwio	r3,0(r2)
			}

			if(y==7)//7
 4002f4c:	e0b7c217 	ldw	r2,-8440(fp)
 4002f50:	108001d8 	cmpnei	r2,r2,7
 4002f54:	1000101e 	bne	r2,zero,4002f98 <main+0x29c4>
			{
				draw(white, COLOR08_BLACK, 19,1 );
 4002f58:	e0b95e04 	addi	r2,fp,-6792
 4002f5c:	01c00044 	movi	r7,1
 4002f60:	018004c4 	movi	r6,19
 4002f64:	000b883a 	mov	r5,zero
 4002f68:	1009883a 	mov	r4,r2
 4002f6c:	40003c80 	call	40003c8 <draw>
				draw(seven, COLOR08_GRAY, 19,1 );
 4002f70:	01c00044 	movi	r7,1
 4002f74:	018004c4 	movi	r6,19
 4002f78:	01402484 	movi	r5,146
 4002f7c:	010100f4 	movhi	r4,1027
 4002f80:	213baa04 	addi	r4,r4,-4440
 4002f84:	40003c80 	call	40003c8 <draw>
				IOWR_ALTERA_AVALON_PIO_DATA (KEY_READ_REQ_BASE, 1);
 4002f88:	00c00044 	movi	r3,1
 4002f8c:	008200b4 	movhi	r2,2050
 4002f90:	10841804 	addi	r2,r2,4192
 4002f94:	10c00035 	stwio	r3,0(r2)
			}

		}
		if(button==3 && x>0)//left
 4002f98:	e0b7da17 	ldw	r2,-8344(fp)
 4002f9c:	108000d8 	cmpnei	r2,r2,3
 4002fa0:	1002151e 	bne	r2,zero,40037f8 <main+0x3224>
 4002fa4:	e0b7c117 	ldw	r2,-8444(fp)
 4002fa8:	0082130e 	bge	zero,r2,40037f8 <main+0x3224>
		{
			x--;
 4002fac:	e0b7c117 	ldw	r2,-8444(fp)
 4002fb0:	10bfffc4 	addi	r2,r2,-1
 4002fb4:	e0b7c115 	stw	r2,-8444(fp)
			draw(square, COLOR08_BLACK, x+1,y+2);
 4002fb8:	e0b7c117 	ldw	r2,-8444(fp)
 4002fbc:	10c00044 	addi	r3,r2,1
 4002fc0:	e0b7c217 	ldw	r2,-8440(fp)
 4002fc4:	11000084 	addi	r4,r2,2
 4002fc8:	e0b7de04 	addi	r2,fp,-8328
 4002fcc:	200f883a 	mov	r7,r4
 4002fd0:	180d883a 	mov	r6,r3
 4002fd4:	000b883a 	mov	r5,zero
 4002fd8:	1009883a 	mov	r4,r2
 4002fdc:	40003c80 	call	40003c8 <draw>
			printf("x: %i , y: %i , number %i \n", x, y, gameboard[y][x]);
 4002fe0:	e0b7c217 	ldw	r2,-8440(fp)
 4002fe4:	01400504 	movi	r5,20
 4002fe8:	1009883a 	mov	r4,r2
 4002fec:	40191000 	call	4019100 <__mulsi3>
 4002ff0:	1007883a 	mov	r3,r2
 4002ff4:	e0b7c117 	ldw	r2,-8444(fp)
 4002ff8:	1885883a 	add	r2,r3,r2
 4002ffc:	1085883a 	add	r2,r2,r2
 4003000:	1085883a 	add	r2,r2,r2
 4003004:	e0f7c104 	addi	r3,fp,-8444
 4003008:	1885883a 	add	r2,r3,r2
 400300c:	10879d04 	addi	r2,r2,7796
 4003010:	10800017 	ldw	r2,0(r2)
 4003014:	100f883a 	mov	r7,r2
 4003018:	e1b7c217 	ldw	r6,-8440(fp)
 400301c:	e177c117 	ldw	r5,-8444(fp)
 4003020:	010100f4 	movhi	r4,1027
 4003024:	212a7504 	addi	r4,r4,-22060
 4003028:	40193c80 	call	40193c8 <printf>

			//x chords
			if(x==0)//0
 400302c:	e0b7c117 	ldw	r2,-8444(fp)
 4003030:	1000101e 	bne	r2,zero,4003074 <main+0x2aa0>
			{
				draw(white, COLOR08_BLACK, 2,1 );
 4003034:	e0b95e04 	addi	r2,fp,-6792
 4003038:	01c00044 	movi	r7,1
 400303c:	01800084 	movi	r6,2
 4003040:	000b883a 	mov	r5,zero
 4003044:	1009883a 	mov	r4,r2
 4003048:	40003c80 	call	40003c8 <draw>
				draw(zero, COLOR08_GRAY, 2,1 );
 400304c:	01c00044 	movi	r7,1
 4003050:	01800084 	movi	r6,2
 4003054:	01402484 	movi	r5,146
 4003058:	010100f4 	movhi	r4,1027
 400305c:	21312a04 	addi	r4,r4,-15192
 4003060:	40003c80 	call	40003c8 <draw>
				IOWR_ALTERA_AVALON_PIO_DATA (KEY_READ_REQ_BASE, 1);
 4003064:	00c00044 	movi	r3,1
 4003068:	008200b4 	movhi	r2,2050
 400306c:	10841804 	addi	r2,r2,4192
 4003070:	10c00035 	stwio	r3,0(r2)
			}

			if(x==1)//1
 4003074:	e0b7c117 	ldw	r2,-8444(fp)
 4003078:	10800058 	cmpnei	r2,r2,1
 400307c:	1000101e 	bne	r2,zero,40030c0 <main+0x2aec>
			{
				draw(white, COLOR08_BLACK, 2,1 );
 4003080:	e0b95e04 	addi	r2,fp,-6792
 4003084:	01c00044 	movi	r7,1
 4003088:	01800084 	movi	r6,2
 400308c:	000b883a 	mov	r5,zero
 4003090:	1009883a 	mov	r4,r2
 4003094:	40003c80 	call	40003c8 <draw>
				draw(one, COLOR08_GRAY, 2,1 );
 4003098:	01c00044 	movi	r7,1
 400309c:	01800084 	movi	r6,2
 40030a0:	01402484 	movi	r5,146
 40030a4:	010100f4 	movhi	r4,1027
 40030a8:	2132aa04 	addi	r4,r4,-13656
 40030ac:	40003c80 	call	40003c8 <draw>
				IOWR_ALTERA_AVALON_PIO_DATA (KEY_READ_REQ_BASE, 1);
 40030b0:	00c00044 	movi	r3,1
 40030b4:	008200b4 	movhi	r2,2050
 40030b8:	10841804 	addi	r2,r2,4192
 40030bc:	10c00035 	stwio	r3,0(r2)
			}

			if(x==2)//2
 40030c0:	e0b7c117 	ldw	r2,-8444(fp)
 40030c4:	10800098 	cmpnei	r2,r2,2
 40030c8:	1000101e 	bne	r2,zero,400310c <main+0x2b38>
			{
				draw(white, COLOR08_BLACK, 2,1 );
 40030cc:	e0b95e04 	addi	r2,fp,-6792
 40030d0:	01c00044 	movi	r7,1
 40030d4:	01800084 	movi	r6,2
 40030d8:	000b883a 	mov	r5,zero
 40030dc:	1009883a 	mov	r4,r2
 40030e0:	40003c80 	call	40003c8 <draw>
				draw(two, COLOR08_GRAY, 2,1 );
 40030e4:	01c00044 	movi	r7,1
 40030e8:	01800084 	movi	r6,2
 40030ec:	01402484 	movi	r5,146
 40030f0:	010100f4 	movhi	r4,1027
 40030f4:	21342a04 	addi	r4,r4,-12120
 40030f8:	40003c80 	call	40003c8 <draw>
				IOWR_ALTERA_AVALON_PIO_DATA (KEY_READ_REQ_BASE, 1);
 40030fc:	00c00044 	movi	r3,1
 4003100:	008200b4 	movhi	r2,2050
 4003104:	10841804 	addi	r2,r2,4192
 4003108:	10c00035 	stwio	r3,0(r2)
			}

			if(x==3)//3
 400310c:	e0b7c117 	ldw	r2,-8444(fp)
 4003110:	108000d8 	cmpnei	r2,r2,3
 4003114:	1000101e 	bne	r2,zero,4003158 <main+0x2b84>
			{
				draw(white, COLOR08_BLACK, 2,1 );
 4003118:	e0b95e04 	addi	r2,fp,-6792
 400311c:	01c00044 	movi	r7,1
 4003120:	01800084 	movi	r6,2
 4003124:	000b883a 	mov	r5,zero
 4003128:	1009883a 	mov	r4,r2
 400312c:	40003c80 	call	40003c8 <draw>
				draw(three, COLOR08_GRAY, 2,1 );
 4003130:	01c00044 	movi	r7,1
 4003134:	01800084 	movi	r6,2
 4003138:	01402484 	movi	r5,146
 400313c:	010100f4 	movhi	r4,1027
 4003140:	2135aa04 	addi	r4,r4,-10584
 4003144:	40003c80 	call	40003c8 <draw>
				IOWR_ALTERA_AVALON_PIO_DATA (KEY_READ_REQ_BASE, 1);
 4003148:	00c00044 	movi	r3,1
 400314c:	008200b4 	movhi	r2,2050
 4003150:	10841804 	addi	r2,r2,4192
 4003154:	10c00035 	stwio	r3,0(r2)
			}

			if(x==4)//4
 4003158:	e0b7c117 	ldw	r2,-8444(fp)
 400315c:	10800118 	cmpnei	r2,r2,4
 4003160:	1000101e 	bne	r2,zero,40031a4 <main+0x2bd0>
			{
				draw(white, COLOR08_BLACK, 2,1 );
 4003164:	e0b95e04 	addi	r2,fp,-6792
 4003168:	01c00044 	movi	r7,1
 400316c:	01800084 	movi	r6,2
 4003170:	000b883a 	mov	r5,zero
 4003174:	1009883a 	mov	r4,r2
 4003178:	40003c80 	call	40003c8 <draw>
				draw(four, COLOR08_GRAY, 2,1 );
 400317c:	01c00044 	movi	r7,1
 4003180:	01800084 	movi	r6,2
 4003184:	01402484 	movi	r5,146
 4003188:	010100f4 	movhi	r4,1027
 400318c:	21372a04 	addi	r4,r4,-9048
 4003190:	40003c80 	call	40003c8 <draw>
				IOWR_ALTERA_AVALON_PIO_DATA (KEY_READ_REQ_BASE, 1);
 4003194:	00c00044 	movi	r3,1
 4003198:	008200b4 	movhi	r2,2050
 400319c:	10841804 	addi	r2,r2,4192
 40031a0:	10c00035 	stwio	r3,0(r2)
			}

			if(x==5)//5
 40031a4:	e0b7c117 	ldw	r2,-8444(fp)
 40031a8:	10800158 	cmpnei	r2,r2,5
 40031ac:	1000101e 	bne	r2,zero,40031f0 <main+0x2c1c>
			{
				draw(white, COLOR08_BLACK, 2,1 );
 40031b0:	e0b95e04 	addi	r2,fp,-6792
 40031b4:	01c00044 	movi	r7,1
 40031b8:	01800084 	movi	r6,2
 40031bc:	000b883a 	mov	r5,zero
 40031c0:	1009883a 	mov	r4,r2
 40031c4:	40003c80 	call	40003c8 <draw>
				draw(five, COLOR08_GRAY, 2,1 );
 40031c8:	01c00044 	movi	r7,1
 40031cc:	01800084 	movi	r6,2
 40031d0:	01402484 	movi	r5,146
 40031d4:	010100f4 	movhi	r4,1027
 40031d8:	2138aa04 	addi	r4,r4,-7512
 40031dc:	40003c80 	call	40003c8 <draw>
				IOWR_ALTERA_AVALON_PIO_DATA (KEY_READ_REQ_BASE, 1);
 40031e0:	00c00044 	movi	r3,1
 40031e4:	008200b4 	movhi	r2,2050
 40031e8:	10841804 	addi	r2,r2,4192
 40031ec:	10c00035 	stwio	r3,0(r2)
			}

			if(x==6)//6
 40031f0:	e0b7c117 	ldw	r2,-8444(fp)
 40031f4:	10800198 	cmpnei	r2,r2,6
 40031f8:	1000101e 	bne	r2,zero,400323c <main+0x2c68>
			{
				draw(white, COLOR08_BLACK, 2,1 );
 40031fc:	e0b95e04 	addi	r2,fp,-6792
 4003200:	01c00044 	movi	r7,1
 4003204:	01800084 	movi	r6,2
 4003208:	000b883a 	mov	r5,zero
 400320c:	1009883a 	mov	r4,r2
 4003210:	40003c80 	call	40003c8 <draw>
				draw(six, COLOR08_GRAY, 2,1 );
 4003214:	01c00044 	movi	r7,1
 4003218:	01800084 	movi	r6,2
 400321c:	01402484 	movi	r5,146
 4003220:	010100f4 	movhi	r4,1027
 4003224:	213a2a04 	addi	r4,r4,-5976
 4003228:	40003c80 	call	40003c8 <draw>
				IOWR_ALTERA_AVALON_PIO_DATA (KEY_READ_REQ_BASE, 1);
 400322c:	00c00044 	movi	r3,1
 4003230:	008200b4 	movhi	r2,2050
 4003234:	10841804 	addi	r2,r2,4192
 4003238:	10c00035 	stwio	r3,0(r2)
			}

			if(x==7)//7
 400323c:	e0b7c117 	ldw	r2,-8444(fp)
 4003240:	108001d8 	cmpnei	r2,r2,7
 4003244:	1000101e 	bne	r2,zero,4003288 <main+0x2cb4>
			{
				draw(white, COLOR08_BLACK, 2,1 );
 4003248:	e0b95e04 	addi	r2,fp,-6792
 400324c:	01c00044 	movi	r7,1
 4003250:	01800084 	movi	r6,2
 4003254:	000b883a 	mov	r5,zero
 4003258:	1009883a 	mov	r4,r2
 400325c:	40003c80 	call	40003c8 <draw>
				draw(seven, COLOR08_GRAY, 2,1 );
 4003260:	01c00044 	movi	r7,1
 4003264:	01800084 	movi	r6,2
 4003268:	01402484 	movi	r5,146
 400326c:	010100f4 	movhi	r4,1027
 4003270:	213baa04 	addi	r4,r4,-4440
 4003274:	40003c80 	call	40003c8 <draw>
				IOWR_ALTERA_AVALON_PIO_DATA (KEY_READ_REQ_BASE, 1);
 4003278:	00c00044 	movi	r3,1
 400327c:	008200b4 	movhi	r2,2050
 4003280:	10841804 	addi	r2,r2,4192
 4003284:	10c00035 	stwio	r3,0(r2)
			}

			if(x==8)//8
 4003288:	e0b7c117 	ldw	r2,-8444(fp)
 400328c:	10800218 	cmpnei	r2,r2,8
 4003290:	1000101e 	bne	r2,zero,40032d4 <main+0x2d00>
			{
				draw(white, COLOR08_BLACK, 2,1 );
 4003294:	e0b95e04 	addi	r2,fp,-6792
 4003298:	01c00044 	movi	r7,1
 400329c:	01800084 	movi	r6,2
 40032a0:	000b883a 	mov	r5,zero
 40032a4:	1009883a 	mov	r4,r2
 40032a8:	40003c80 	call	40003c8 <draw>
				draw(eight, COLOR08_GRAY, 2,1 );
 40032ac:	01c00044 	movi	r7,1
 40032b0:	01800084 	movi	r6,2
 40032b4:	01402484 	movi	r5,146
 40032b8:	010100f4 	movhi	r4,1027
 40032bc:	213d2a04 	addi	r4,r4,-2904
 40032c0:	40003c80 	call	40003c8 <draw>
				IOWR_ALTERA_AVALON_PIO_DATA (KEY_READ_REQ_BASE, 1);
 40032c4:	00c00044 	movi	r3,1
 40032c8:	008200b4 	movhi	r2,2050
 40032cc:	10841804 	addi	r2,r2,4192
 40032d0:	10c00035 	stwio	r3,0(r2)
			}

			if(x==9)//9
 40032d4:	e0b7c117 	ldw	r2,-8444(fp)
 40032d8:	10800258 	cmpnei	r2,r2,9
 40032dc:	1000101e 	bne	r2,zero,4003320 <main+0x2d4c>
			{
				draw(white, COLOR08_BLACK, 2,1 );
 40032e0:	e0b95e04 	addi	r2,fp,-6792
 40032e4:	01c00044 	movi	r7,1
 40032e8:	01800084 	movi	r6,2
 40032ec:	000b883a 	mov	r5,zero
 40032f0:	1009883a 	mov	r4,r2
 40032f4:	40003c80 	call	40003c8 <draw>
				draw(nine, COLOR08_GRAY, 2,1 );
 40032f8:	01c00044 	movi	r7,1
 40032fc:	01800084 	movi	r6,2
 4003300:	01402484 	movi	r5,146
 4003304:	010100f4 	movhi	r4,1027
 4003308:	213eaa04 	addi	r4,r4,-1368
 400330c:	40003c80 	call	40003c8 <draw>
				IOWR_ALTERA_AVALON_PIO_DATA (KEY_READ_REQ_BASE, 1);
 4003310:	00c00044 	movi	r3,1
 4003314:	008200b4 	movhi	r2,2050
 4003318:	10841804 	addi	r2,r2,4192
 400331c:	10c00035 	stwio	r3,0(r2)
			}

			if(x==10)//10
 4003320:	e0b7c117 	ldw	r2,-8444(fp)
 4003324:	10800298 	cmpnei	r2,r2,10
 4003328:	10001c1e 	bne	r2,zero,400339c <main+0x2dc8>
			{
				draw(white, COLOR08_BLACK, 2,1 );
 400332c:	e0b95e04 	addi	r2,fp,-6792
 4003330:	01c00044 	movi	r7,1
 4003334:	01800084 	movi	r6,2
 4003338:	000b883a 	mov	r5,zero
 400333c:	1009883a 	mov	r4,r2
 4003340:	40003c80 	call	40003c8 <draw>
				draw(white, COLOR08_BLACK, 1,1 );
 4003344:	e0b95e04 	addi	r2,fp,-6792
 4003348:	01c00044 	movi	r7,1
 400334c:	01800044 	movi	r6,1
 4003350:	000b883a 	mov	r5,zero
 4003354:	1009883a 	mov	r4,r2
 4003358:	40003c80 	call	40003c8 <draw>
				draw(zero, COLOR08_GRAY, 2,1 );
 400335c:	01c00044 	movi	r7,1
 4003360:	01800084 	movi	r6,2
 4003364:	01402484 	movi	r5,146
 4003368:	010100f4 	movhi	r4,1027
 400336c:	21312a04 	addi	r4,r4,-15192
 4003370:	40003c80 	call	40003c8 <draw>
				draw(one, COLOR08_GRAY, 1,1 );
 4003374:	01c00044 	movi	r7,1
 4003378:	01800044 	movi	r6,1
 400337c:	01402484 	movi	r5,146
 4003380:	010100f4 	movhi	r4,1027
 4003384:	2132aa04 	addi	r4,r4,-13656
 4003388:	40003c80 	call	40003c8 <draw>
				IOWR_ALTERA_AVALON_PIO_DATA (KEY_READ_REQ_BASE, 1);
 400338c:	00c00044 	movi	r3,1
 4003390:	008200b4 	movhi	r2,2050
 4003394:	10841804 	addi	r2,r2,4192
 4003398:	10c00035 	stwio	r3,0(r2)
			}

			if(x==11)//11
 400339c:	e0b7c117 	ldw	r2,-8444(fp)
 40033a0:	108002d8 	cmpnei	r2,r2,11
 40033a4:	10001c1e 	bne	r2,zero,4003418 <main+0x2e44>
			{
				draw(white, COLOR08_BLACK, 2,1 );
 40033a8:	e0b95e04 	addi	r2,fp,-6792
 40033ac:	01c00044 	movi	r7,1
 40033b0:	01800084 	movi	r6,2
 40033b4:	000b883a 	mov	r5,zero
 40033b8:	1009883a 	mov	r4,r2
 40033bc:	40003c80 	call	40003c8 <draw>
				draw(white, COLOR08_BLACK, 1,1 );
 40033c0:	e0b95e04 	addi	r2,fp,-6792
 40033c4:	01c00044 	movi	r7,1
 40033c8:	01800044 	movi	r6,1
 40033cc:	000b883a 	mov	r5,zero
 40033d0:	1009883a 	mov	r4,r2
 40033d4:	40003c80 	call	40003c8 <draw>
				draw(one, COLOR08_GRAY, 2,1 );
 40033d8:	01c00044 	movi	r7,1
 40033dc:	01800084 	movi	r6,2
 40033e0:	01402484 	movi	r5,146
 40033e4:	010100f4 	movhi	r4,1027
 40033e8:	2132aa04 	addi	r4,r4,-13656
 40033ec:	40003c80 	call	40003c8 <draw>
				draw(one, COLOR08_GRAY, 1,1 );
 40033f0:	01c00044 	movi	r7,1
 40033f4:	01800044 	movi	r6,1
 40033f8:	01402484 	movi	r5,146
 40033fc:	010100f4 	movhi	r4,1027
 4003400:	2132aa04 	addi	r4,r4,-13656
 4003404:	40003c80 	call	40003c8 <draw>
				IOWR_ALTERA_AVALON_PIO_DATA (KEY_READ_REQ_BASE, 1);
 4003408:	00c00044 	movi	r3,1
 400340c:	008200b4 	movhi	r2,2050
 4003410:	10841804 	addi	r2,r2,4192
 4003414:	10c00035 	stwio	r3,0(r2)
			}

			if(x==12)//12
 4003418:	e0b7c117 	ldw	r2,-8444(fp)
 400341c:	10800318 	cmpnei	r2,r2,12
 4003420:	10001c1e 	bne	r2,zero,4003494 <main+0x2ec0>
			{
				draw(white, COLOR08_BLACK, 2,1 );
 4003424:	e0b95e04 	addi	r2,fp,-6792
 4003428:	01c00044 	movi	r7,1
 400342c:	01800084 	movi	r6,2
 4003430:	000b883a 	mov	r5,zero
 4003434:	1009883a 	mov	r4,r2
 4003438:	40003c80 	call	40003c8 <draw>
				draw(white, COLOR08_BLACK, 1,1 );
 400343c:	e0b95e04 	addi	r2,fp,-6792
 4003440:	01c00044 	movi	r7,1
 4003444:	01800044 	movi	r6,1
 4003448:	000b883a 	mov	r5,zero
 400344c:	1009883a 	mov	r4,r2
 4003450:	40003c80 	call	40003c8 <draw>
				draw(two, COLOR08_GRAY, 2,1 );
 4003454:	01c00044 	movi	r7,1
 4003458:	01800084 	movi	r6,2
 400345c:	01402484 	movi	r5,146
 4003460:	010100f4 	movhi	r4,1027
 4003464:	21342a04 	addi	r4,r4,-12120
 4003468:	40003c80 	call	40003c8 <draw>
				draw(one, COLOR08_GRAY, 1,1 );
 400346c:	01c00044 	movi	r7,1
 4003470:	01800044 	movi	r6,1
 4003474:	01402484 	movi	r5,146
 4003478:	010100f4 	movhi	r4,1027
 400347c:	2132aa04 	addi	r4,r4,-13656
 4003480:	40003c80 	call	40003c8 <draw>
				IOWR_ALTERA_AVALON_PIO_DATA (KEY_READ_REQ_BASE, 1);
 4003484:	00c00044 	movi	r3,1
 4003488:	008200b4 	movhi	r2,2050
 400348c:	10841804 	addi	r2,r2,4192
 4003490:	10c00035 	stwio	r3,0(r2)
			}

			if(x==13)//13
 4003494:	e0b7c117 	ldw	r2,-8444(fp)
 4003498:	10800358 	cmpnei	r2,r2,13
 400349c:	10001c1e 	bne	r2,zero,4003510 <main+0x2f3c>
			{
				draw(white, COLOR08_BLACK, 2,1 );
 40034a0:	e0b95e04 	addi	r2,fp,-6792
 40034a4:	01c00044 	movi	r7,1
 40034a8:	01800084 	movi	r6,2
 40034ac:	000b883a 	mov	r5,zero
 40034b0:	1009883a 	mov	r4,r2
 40034b4:	40003c80 	call	40003c8 <draw>
				draw(white, COLOR08_BLACK, 1,1 );
 40034b8:	e0b95e04 	addi	r2,fp,-6792
 40034bc:	01c00044 	movi	r7,1
 40034c0:	01800044 	movi	r6,1
 40034c4:	000b883a 	mov	r5,zero
 40034c8:	1009883a 	mov	r4,r2
 40034cc:	40003c80 	call	40003c8 <draw>
				draw(three, COLOR08_GRAY, 2,1 );
 40034d0:	01c00044 	movi	r7,1
 40034d4:	01800084 	movi	r6,2
 40034d8:	01402484 	movi	r5,146
 40034dc:	010100f4 	movhi	r4,1027
 40034e0:	2135aa04 	addi	r4,r4,-10584
 40034e4:	40003c80 	call	40003c8 <draw>
				draw(one, COLOR08_GRAY, 1,1 );
 40034e8:	01c00044 	movi	r7,1
 40034ec:	01800044 	movi	r6,1
 40034f0:	01402484 	movi	r5,146
 40034f4:	010100f4 	movhi	r4,1027
 40034f8:	2132aa04 	addi	r4,r4,-13656
 40034fc:	40003c80 	call	40003c8 <draw>
				IOWR_ALTERA_AVALON_PIO_DATA (KEY_READ_REQ_BASE, 1);
 4003500:	00c00044 	movi	r3,1
 4003504:	008200b4 	movhi	r2,2050
 4003508:	10841804 	addi	r2,r2,4192
 400350c:	10c00035 	stwio	r3,0(r2)
			}

			if(x==14)//14
 4003510:	e0b7c117 	ldw	r2,-8444(fp)
 4003514:	10800398 	cmpnei	r2,r2,14
 4003518:	10001c1e 	bne	r2,zero,400358c <main+0x2fb8>
			{
				draw(white, COLOR08_BLACK, 2,1 );
 400351c:	e0b95e04 	addi	r2,fp,-6792
 4003520:	01c00044 	movi	r7,1
 4003524:	01800084 	movi	r6,2
 4003528:	000b883a 	mov	r5,zero
 400352c:	1009883a 	mov	r4,r2
 4003530:	40003c80 	call	40003c8 <draw>
				draw(white, COLOR08_BLACK, 1,1 );
 4003534:	e0b95e04 	addi	r2,fp,-6792
 4003538:	01c00044 	movi	r7,1
 400353c:	01800044 	movi	r6,1
 4003540:	000b883a 	mov	r5,zero
 4003544:	1009883a 	mov	r4,r2
 4003548:	40003c80 	call	40003c8 <draw>
				draw(four, COLOR08_GRAY, 2,1 );
 400354c:	01c00044 	movi	r7,1
 4003550:	01800084 	movi	r6,2
 4003554:	01402484 	movi	r5,146
 4003558:	010100f4 	movhi	r4,1027
 400355c:	21372a04 	addi	r4,r4,-9048
 4003560:	40003c80 	call	40003c8 <draw>
				draw(one, COLOR08_GRAY, 1,1 );
 4003564:	01c00044 	movi	r7,1
 4003568:	01800044 	movi	r6,1
 400356c:	01402484 	movi	r5,146
 4003570:	010100f4 	movhi	r4,1027
 4003574:	2132aa04 	addi	r4,r4,-13656
 4003578:	40003c80 	call	40003c8 <draw>
				IOWR_ALTERA_AVALON_PIO_DATA (KEY_READ_REQ_BASE, 1);
 400357c:	00c00044 	movi	r3,1
 4003580:	008200b4 	movhi	r2,2050
 4003584:	10841804 	addi	r2,r2,4192
 4003588:	10c00035 	stwio	r3,0(r2)
			}

			if(x==15)//15
 400358c:	e0b7c117 	ldw	r2,-8444(fp)
 4003590:	108003d8 	cmpnei	r2,r2,15
 4003594:	10001c1e 	bne	r2,zero,4003608 <main+0x3034>
			{
				draw(white, COLOR08_BLACK, 2,1 );
 4003598:	e0b95e04 	addi	r2,fp,-6792
 400359c:	01c00044 	movi	r7,1
 40035a0:	01800084 	movi	r6,2
 40035a4:	000b883a 	mov	r5,zero
 40035a8:	1009883a 	mov	r4,r2
 40035ac:	40003c80 	call	40003c8 <draw>
				draw(white, COLOR08_BLACK, 1,1 );
 40035b0:	e0b95e04 	addi	r2,fp,-6792
 40035b4:	01c00044 	movi	r7,1
 40035b8:	01800044 	movi	r6,1
 40035bc:	000b883a 	mov	r5,zero
 40035c0:	1009883a 	mov	r4,r2
 40035c4:	40003c80 	call	40003c8 <draw>
				draw(five, COLOR08_GRAY, 2,1 );
 40035c8:	01c00044 	movi	r7,1
 40035cc:	01800084 	movi	r6,2
 40035d0:	01402484 	movi	r5,146
 40035d4:	010100f4 	movhi	r4,1027
 40035d8:	2138aa04 	addi	r4,r4,-7512
 40035dc:	40003c80 	call	40003c8 <draw>
				draw(one, COLOR08_GRAY, 1,1 );
 40035e0:	01c00044 	movi	r7,1
 40035e4:	01800044 	movi	r6,1
 40035e8:	01402484 	movi	r5,146
 40035ec:	010100f4 	movhi	r4,1027
 40035f0:	2132aa04 	addi	r4,r4,-13656
 40035f4:	40003c80 	call	40003c8 <draw>
				IOWR_ALTERA_AVALON_PIO_DATA (KEY_READ_REQ_BASE, 1);
 40035f8:	00c00044 	movi	r3,1
 40035fc:	008200b4 	movhi	r2,2050
 4003600:	10841804 	addi	r2,r2,4192
 4003604:	10c00035 	stwio	r3,0(r2)
			}

			if(x==16)//16
 4003608:	e0b7c117 	ldw	r2,-8444(fp)
 400360c:	10800418 	cmpnei	r2,r2,16
 4003610:	10001c1e 	bne	r2,zero,4003684 <main+0x30b0>
			{
				draw(white, COLOR08_BLACK, 2,1 );
 4003614:	e0b95e04 	addi	r2,fp,-6792
 4003618:	01c00044 	movi	r7,1
 400361c:	01800084 	movi	r6,2
 4003620:	000b883a 	mov	r5,zero
 4003624:	1009883a 	mov	r4,r2
 4003628:	40003c80 	call	40003c8 <draw>
				draw(white, COLOR08_BLACK, 1,1 );
 400362c:	e0b95e04 	addi	r2,fp,-6792
 4003630:	01c00044 	movi	r7,1
 4003634:	01800044 	movi	r6,1
 4003638:	000b883a 	mov	r5,zero
 400363c:	1009883a 	mov	r4,r2
 4003640:	40003c80 	call	40003c8 <draw>
				draw(six, COLOR08_GRAY, 2,1 );
 4003644:	01c00044 	movi	r7,1
 4003648:	01800084 	movi	r6,2
 400364c:	01402484 	movi	r5,146
 4003650:	010100f4 	movhi	r4,1027
 4003654:	213a2a04 	addi	r4,r4,-5976
 4003658:	40003c80 	call	40003c8 <draw>
				draw(one, COLOR08_GRAY, 1,1 );
 400365c:	01c00044 	movi	r7,1
 4003660:	01800044 	movi	r6,1
 4003664:	01402484 	movi	r5,146
 4003668:	010100f4 	movhi	r4,1027
 400366c:	2132aa04 	addi	r4,r4,-13656
 4003670:	40003c80 	call	40003c8 <draw>
				IOWR_ALTERA_AVALON_PIO_DATA (KEY_READ_REQ_BASE, 1);
 4003674:	00c00044 	movi	r3,1
 4003678:	008200b4 	movhi	r2,2050
 400367c:	10841804 	addi	r2,r2,4192
 4003680:	10c00035 	stwio	r3,0(r2)
			}

			if(x==17)//17
 4003684:	e0b7c117 	ldw	r2,-8444(fp)
 4003688:	10800458 	cmpnei	r2,r2,17
 400368c:	10001c1e 	bne	r2,zero,4003700 <main+0x312c>
			{
				draw(white, COLOR08_BLACK, 2,1 );
 4003690:	e0b95e04 	addi	r2,fp,-6792
 4003694:	01c00044 	movi	r7,1
 4003698:	01800084 	movi	r6,2
 400369c:	000b883a 	mov	r5,zero
 40036a0:	1009883a 	mov	r4,r2
 40036a4:	40003c80 	call	40003c8 <draw>
				draw(white, COLOR08_BLACK, 1,1 );
 40036a8:	e0b95e04 	addi	r2,fp,-6792
 40036ac:	01c00044 	movi	r7,1
 40036b0:	01800044 	movi	r6,1
 40036b4:	000b883a 	mov	r5,zero
 40036b8:	1009883a 	mov	r4,r2
 40036bc:	40003c80 	call	40003c8 <draw>
				draw(seven, COLOR08_GRAY, 2,1 );
 40036c0:	01c00044 	movi	r7,1
 40036c4:	01800084 	movi	r6,2
 40036c8:	01402484 	movi	r5,146
 40036cc:	010100f4 	movhi	r4,1027
 40036d0:	213baa04 	addi	r4,r4,-4440
 40036d4:	40003c80 	call	40003c8 <draw>
				draw(one, COLOR08_GRAY, 1,1 );
 40036d8:	01c00044 	movi	r7,1
 40036dc:	01800044 	movi	r6,1
 40036e0:	01402484 	movi	r5,146
 40036e4:	010100f4 	movhi	r4,1027
 40036e8:	2132aa04 	addi	r4,r4,-13656
 40036ec:	40003c80 	call	40003c8 <draw>
				IOWR_ALTERA_AVALON_PIO_DATA (KEY_READ_REQ_BASE, 1);
 40036f0:	00c00044 	movi	r3,1
 40036f4:	008200b4 	movhi	r2,2050
 40036f8:	10841804 	addi	r2,r2,4192
 40036fc:	10c00035 	stwio	r3,0(r2)
			}

			if(x==18)//18
 4003700:	e0b7c117 	ldw	r2,-8444(fp)
 4003704:	10800498 	cmpnei	r2,r2,18
 4003708:	10001c1e 	bne	r2,zero,400377c <main+0x31a8>
			{
				draw(white, COLOR08_BLACK, 2,1 );
 400370c:	e0b95e04 	addi	r2,fp,-6792
 4003710:	01c00044 	movi	r7,1
 4003714:	01800084 	movi	r6,2
 4003718:	000b883a 	mov	r5,zero
 400371c:	1009883a 	mov	r4,r2
 4003720:	40003c80 	call	40003c8 <draw>
				draw(white, COLOR08_BLACK, 1,1 );
 4003724:	e0b95e04 	addi	r2,fp,-6792
 4003728:	01c00044 	movi	r7,1
 400372c:	01800044 	movi	r6,1
 4003730:	000b883a 	mov	r5,zero
 4003734:	1009883a 	mov	r4,r2
 4003738:	40003c80 	call	40003c8 <draw>
				draw(eight, COLOR08_GRAY, 2,1 );
 400373c:	01c00044 	movi	r7,1
 4003740:	01800084 	movi	r6,2
 4003744:	01402484 	movi	r5,146
 4003748:	010100f4 	movhi	r4,1027
 400374c:	213d2a04 	addi	r4,r4,-2904
 4003750:	40003c80 	call	40003c8 <draw>
				draw(one, COLOR08_GRAY, 1,1 );
 4003754:	01c00044 	movi	r7,1
 4003758:	01800044 	movi	r6,1
 400375c:	01402484 	movi	r5,146
 4003760:	010100f4 	movhi	r4,1027
 4003764:	2132aa04 	addi	r4,r4,-13656
 4003768:	40003c80 	call	40003c8 <draw>
				IOWR_ALTERA_AVALON_PIO_DATA (KEY_READ_REQ_BASE, 1);
 400376c:	00c00044 	movi	r3,1
 4003770:	008200b4 	movhi	r2,2050
 4003774:	10841804 	addi	r2,r2,4192
 4003778:	10c00035 	stwio	r3,0(r2)
			}

			if(x==19)//19
 400377c:	e0b7c117 	ldw	r2,-8444(fp)
 4003780:	108004d8 	cmpnei	r2,r2,19
 4003784:	10001c1e 	bne	r2,zero,40037f8 <main+0x3224>
			{
				draw(white, COLOR08_BLACK, 2,1 );
 4003788:	e0b95e04 	addi	r2,fp,-6792
 400378c:	01c00044 	movi	r7,1
 4003790:	01800084 	movi	r6,2
 4003794:	000b883a 	mov	r5,zero
 4003798:	1009883a 	mov	r4,r2
 400379c:	40003c80 	call	40003c8 <draw>
				draw(white, COLOR08_BLACK, 1,1 );
 40037a0:	e0b95e04 	addi	r2,fp,-6792
 40037a4:	01c00044 	movi	r7,1
 40037a8:	01800044 	movi	r6,1
 40037ac:	000b883a 	mov	r5,zero
 40037b0:	1009883a 	mov	r4,r2
 40037b4:	40003c80 	call	40003c8 <draw>
				draw(nine, COLOR08_GRAY, 2,1 );
 40037b8:	01c00044 	movi	r7,1
 40037bc:	01800084 	movi	r6,2
 40037c0:	01402484 	movi	r5,146
 40037c4:	010100f4 	movhi	r4,1027
 40037c8:	213eaa04 	addi	r4,r4,-1368
 40037cc:	40003c80 	call	40003c8 <draw>
				draw(one, COLOR08_GRAY, 1,1 );
 40037d0:	01c00044 	movi	r7,1
 40037d4:	01800044 	movi	r6,1
 40037d8:	01402484 	movi	r5,146
 40037dc:	010100f4 	movhi	r4,1027
 40037e0:	2132aa04 	addi	r4,r4,-13656
 40037e4:	40003c80 	call	40003c8 <draw>
				IOWR_ALTERA_AVALON_PIO_DATA (KEY_READ_REQ_BASE, 1);
 40037e8:	00c00044 	movi	r3,1
 40037ec:	008200b4 	movhi	r2,2050
 40037f0:	10841804 	addi	r2,r2,4192
 40037f4:	10c00035 	stwio	r3,0(r2)
			}


		}
		if(button==4 && x<19)//right
 40037f8:	e0b7da17 	ldw	r2,-8344(fp)
 40037fc:	10800118 	cmpnei	r2,r2,4
 4003800:	1002161e 	bne	r2,zero,400405c <main+0x3a88>
 4003804:	e0b7c117 	ldw	r2,-8444(fp)
 4003808:	108004c8 	cmpgei	r2,r2,19
 400380c:	1002131e 	bne	r2,zero,400405c <main+0x3a88>
		{
			x++;
 4003810:	e0b7c117 	ldw	r2,-8444(fp)
 4003814:	10800044 	addi	r2,r2,1
 4003818:	e0b7c115 	stw	r2,-8444(fp)
			draw(square, COLOR08_BLACK, x-1,y+2);
 400381c:	e0b7c117 	ldw	r2,-8444(fp)
 4003820:	10ffffc4 	addi	r3,r2,-1
 4003824:	e0b7c217 	ldw	r2,-8440(fp)
 4003828:	11000084 	addi	r4,r2,2
 400382c:	e0b7de04 	addi	r2,fp,-8328
 4003830:	200f883a 	mov	r7,r4
 4003834:	180d883a 	mov	r6,r3
 4003838:	000b883a 	mov	r5,zero
 400383c:	1009883a 	mov	r4,r2
 4003840:	40003c80 	call	40003c8 <draw>
			printf("x: %i , y: %i , number %i \n", x, y, gameboard[y][x]);
 4003844:	e0b7c217 	ldw	r2,-8440(fp)
 4003848:	01400504 	movi	r5,20
 400384c:	1009883a 	mov	r4,r2
 4003850:	40191000 	call	4019100 <__mulsi3>
 4003854:	1007883a 	mov	r3,r2
 4003858:	e0b7c117 	ldw	r2,-8444(fp)
 400385c:	1885883a 	add	r2,r3,r2
 4003860:	1085883a 	add	r2,r2,r2
 4003864:	1085883a 	add	r2,r2,r2
 4003868:	e0f7c104 	addi	r3,fp,-8444
 400386c:	1885883a 	add	r2,r3,r2
 4003870:	10879d04 	addi	r2,r2,7796
 4003874:	10800017 	ldw	r2,0(r2)
 4003878:	100f883a 	mov	r7,r2
 400387c:	e1b7c217 	ldw	r6,-8440(fp)
 4003880:	e177c117 	ldw	r5,-8444(fp)
 4003884:	010100f4 	movhi	r4,1027
 4003888:	212a7504 	addi	r4,r4,-22060
 400388c:	40193c80 	call	40193c8 <printf>

			//x chords
			if(x==0)//0
 4003890:	e0b7c117 	ldw	r2,-8444(fp)
 4003894:	1000101e 	bne	r2,zero,40038d8 <main+0x3304>
			{
				draw(white, COLOR08_BLACK, 2,1 );
 4003898:	e0b95e04 	addi	r2,fp,-6792
 400389c:	01c00044 	movi	r7,1
 40038a0:	01800084 	movi	r6,2
 40038a4:	000b883a 	mov	r5,zero
 40038a8:	1009883a 	mov	r4,r2
 40038ac:	40003c80 	call	40003c8 <draw>
				draw(zero, COLOR08_GRAY, 2,1 );
 40038b0:	01c00044 	movi	r7,1
 40038b4:	01800084 	movi	r6,2
 40038b8:	01402484 	movi	r5,146
 40038bc:	010100f4 	movhi	r4,1027
 40038c0:	21312a04 	addi	r4,r4,-15192
 40038c4:	40003c80 	call	40003c8 <draw>
				IOWR_ALTERA_AVALON_PIO_DATA (KEY_READ_REQ_BASE, 1);
 40038c8:	00c00044 	movi	r3,1
 40038cc:	008200b4 	movhi	r2,2050
 40038d0:	10841804 	addi	r2,r2,4192
 40038d4:	10c00035 	stwio	r3,0(r2)

			}

			if(x==1)//1
 40038d8:	e0b7c117 	ldw	r2,-8444(fp)
 40038dc:	10800058 	cmpnei	r2,r2,1
 40038e0:	1000101e 	bne	r2,zero,4003924 <main+0x3350>
			{
				draw(white, COLOR08_BLACK, 2,1 );
 40038e4:	e0b95e04 	addi	r2,fp,-6792
 40038e8:	01c00044 	movi	r7,1
 40038ec:	01800084 	movi	r6,2
 40038f0:	000b883a 	mov	r5,zero
 40038f4:	1009883a 	mov	r4,r2
 40038f8:	40003c80 	call	40003c8 <draw>
				draw(one, COLOR08_GRAY, 2,1 );
 40038fc:	01c00044 	movi	r7,1
 4003900:	01800084 	movi	r6,2
 4003904:	01402484 	movi	r5,146
 4003908:	010100f4 	movhi	r4,1027
 400390c:	2132aa04 	addi	r4,r4,-13656
 4003910:	40003c80 	call	40003c8 <draw>
				IOWR_ALTERA_AVALON_PIO_DATA (KEY_READ_REQ_BASE, 1);
 4003914:	00c00044 	movi	r3,1
 4003918:	008200b4 	movhi	r2,2050
 400391c:	10841804 	addi	r2,r2,4192
 4003920:	10c00035 	stwio	r3,0(r2)
			}

			if(x==2)//2
 4003924:	e0b7c117 	ldw	r2,-8444(fp)
 4003928:	10800098 	cmpnei	r2,r2,2
 400392c:	1000101e 	bne	r2,zero,4003970 <main+0x339c>
			{
				draw(white, COLOR08_BLACK, 2,1 );
 4003930:	e0b95e04 	addi	r2,fp,-6792
 4003934:	01c00044 	movi	r7,1
 4003938:	01800084 	movi	r6,2
 400393c:	000b883a 	mov	r5,zero
 4003940:	1009883a 	mov	r4,r2
 4003944:	40003c80 	call	40003c8 <draw>
				draw(two, COLOR08_GRAY, 2,1 );
 4003948:	01c00044 	movi	r7,1
 400394c:	01800084 	movi	r6,2
 4003950:	01402484 	movi	r5,146
 4003954:	010100f4 	movhi	r4,1027
 4003958:	21342a04 	addi	r4,r4,-12120
 400395c:	40003c80 	call	40003c8 <draw>
				IOWR_ALTERA_AVALON_PIO_DATA (KEY_READ_REQ_BASE, 1);
 4003960:	00c00044 	movi	r3,1
 4003964:	008200b4 	movhi	r2,2050
 4003968:	10841804 	addi	r2,r2,4192
 400396c:	10c00035 	stwio	r3,0(r2)
			}

			if(x==3)//3
 4003970:	e0b7c117 	ldw	r2,-8444(fp)
 4003974:	108000d8 	cmpnei	r2,r2,3
 4003978:	1000101e 	bne	r2,zero,40039bc <main+0x33e8>
			{
				draw(white, COLOR08_BLACK, 2,1 );
 400397c:	e0b95e04 	addi	r2,fp,-6792
 4003980:	01c00044 	movi	r7,1
 4003984:	01800084 	movi	r6,2
 4003988:	000b883a 	mov	r5,zero
 400398c:	1009883a 	mov	r4,r2
 4003990:	40003c80 	call	40003c8 <draw>
				draw(three, COLOR08_GRAY, 2,1 );
 4003994:	01c00044 	movi	r7,1
 4003998:	01800084 	movi	r6,2
 400399c:	01402484 	movi	r5,146
 40039a0:	010100f4 	movhi	r4,1027
 40039a4:	2135aa04 	addi	r4,r4,-10584
 40039a8:	40003c80 	call	40003c8 <draw>
				IOWR_ALTERA_AVALON_PIO_DATA (KEY_READ_REQ_BASE, 1);
 40039ac:	00c00044 	movi	r3,1
 40039b0:	008200b4 	movhi	r2,2050
 40039b4:	10841804 	addi	r2,r2,4192
 40039b8:	10c00035 	stwio	r3,0(r2)
			}

			if(x==4)//4
 40039bc:	e0b7c117 	ldw	r2,-8444(fp)
 40039c0:	10800118 	cmpnei	r2,r2,4
 40039c4:	1000101e 	bne	r2,zero,4003a08 <main+0x3434>
			{
				draw(white, COLOR08_BLACK, 2,1 );
 40039c8:	e0b95e04 	addi	r2,fp,-6792
 40039cc:	01c00044 	movi	r7,1
 40039d0:	01800084 	movi	r6,2
 40039d4:	000b883a 	mov	r5,zero
 40039d8:	1009883a 	mov	r4,r2
 40039dc:	40003c80 	call	40003c8 <draw>
				draw(four, COLOR08_GRAY, 2,1 );
 40039e0:	01c00044 	movi	r7,1
 40039e4:	01800084 	movi	r6,2
 40039e8:	01402484 	movi	r5,146
 40039ec:	010100f4 	movhi	r4,1027
 40039f0:	21372a04 	addi	r4,r4,-9048
 40039f4:	40003c80 	call	40003c8 <draw>
				IOWR_ALTERA_AVALON_PIO_DATA (KEY_READ_REQ_BASE, 1);
 40039f8:	00c00044 	movi	r3,1
 40039fc:	008200b4 	movhi	r2,2050
 4003a00:	10841804 	addi	r2,r2,4192
 4003a04:	10c00035 	stwio	r3,0(r2)
			}

			if(x==5)//5
 4003a08:	e0b7c117 	ldw	r2,-8444(fp)
 4003a0c:	10800158 	cmpnei	r2,r2,5
 4003a10:	1000101e 	bne	r2,zero,4003a54 <main+0x3480>
			{
				draw(white, COLOR08_BLACK, 2,1 );
 4003a14:	e0b95e04 	addi	r2,fp,-6792
 4003a18:	01c00044 	movi	r7,1
 4003a1c:	01800084 	movi	r6,2
 4003a20:	000b883a 	mov	r5,zero
 4003a24:	1009883a 	mov	r4,r2
 4003a28:	40003c80 	call	40003c8 <draw>
				draw(five, COLOR08_GRAY, 2,1 );
 4003a2c:	01c00044 	movi	r7,1
 4003a30:	01800084 	movi	r6,2
 4003a34:	01402484 	movi	r5,146
 4003a38:	010100f4 	movhi	r4,1027
 4003a3c:	2138aa04 	addi	r4,r4,-7512
 4003a40:	40003c80 	call	40003c8 <draw>
				IOWR_ALTERA_AVALON_PIO_DATA (KEY_READ_REQ_BASE, 1);
 4003a44:	00c00044 	movi	r3,1
 4003a48:	008200b4 	movhi	r2,2050
 4003a4c:	10841804 	addi	r2,r2,4192
 4003a50:	10c00035 	stwio	r3,0(r2)
			}

			if(x==6)//6
 4003a54:	e0b7c117 	ldw	r2,-8444(fp)
 4003a58:	10800198 	cmpnei	r2,r2,6
 4003a5c:	1000101e 	bne	r2,zero,4003aa0 <main+0x34cc>
			{
				draw(white, COLOR08_BLACK, 2,1 );
 4003a60:	e0b95e04 	addi	r2,fp,-6792
 4003a64:	01c00044 	movi	r7,1
 4003a68:	01800084 	movi	r6,2
 4003a6c:	000b883a 	mov	r5,zero
 4003a70:	1009883a 	mov	r4,r2
 4003a74:	40003c80 	call	40003c8 <draw>
				draw(six, COLOR08_GRAY, 2,1 );
 4003a78:	01c00044 	movi	r7,1
 4003a7c:	01800084 	movi	r6,2
 4003a80:	01402484 	movi	r5,146
 4003a84:	010100f4 	movhi	r4,1027
 4003a88:	213a2a04 	addi	r4,r4,-5976
 4003a8c:	40003c80 	call	40003c8 <draw>
				IOWR_ALTERA_AVALON_PIO_DATA (KEY_READ_REQ_BASE, 1);
 4003a90:	00c00044 	movi	r3,1
 4003a94:	008200b4 	movhi	r2,2050
 4003a98:	10841804 	addi	r2,r2,4192
 4003a9c:	10c00035 	stwio	r3,0(r2)
			}

			if(x==7)//7
 4003aa0:	e0b7c117 	ldw	r2,-8444(fp)
 4003aa4:	108001d8 	cmpnei	r2,r2,7
 4003aa8:	1000101e 	bne	r2,zero,4003aec <main+0x3518>
			{
				draw(white, COLOR08_BLACK, 2,1 );
 4003aac:	e0b95e04 	addi	r2,fp,-6792
 4003ab0:	01c00044 	movi	r7,1
 4003ab4:	01800084 	movi	r6,2
 4003ab8:	000b883a 	mov	r5,zero
 4003abc:	1009883a 	mov	r4,r2
 4003ac0:	40003c80 	call	40003c8 <draw>
				draw(seven, COLOR08_GRAY, 2,1 );
 4003ac4:	01c00044 	movi	r7,1
 4003ac8:	01800084 	movi	r6,2
 4003acc:	01402484 	movi	r5,146
 4003ad0:	010100f4 	movhi	r4,1027
 4003ad4:	213baa04 	addi	r4,r4,-4440
 4003ad8:	40003c80 	call	40003c8 <draw>
				IOWR_ALTERA_AVALON_PIO_DATA (KEY_READ_REQ_BASE, 1);
 4003adc:	00c00044 	movi	r3,1
 4003ae0:	008200b4 	movhi	r2,2050
 4003ae4:	10841804 	addi	r2,r2,4192
 4003ae8:	10c00035 	stwio	r3,0(r2)
			}

			if(x==8)//8
 4003aec:	e0b7c117 	ldw	r2,-8444(fp)
 4003af0:	10800218 	cmpnei	r2,r2,8
 4003af4:	1000101e 	bne	r2,zero,4003b38 <main+0x3564>
			{
				draw(white, COLOR08_BLACK, 2,1 );
 4003af8:	e0b95e04 	addi	r2,fp,-6792
 4003afc:	01c00044 	movi	r7,1
 4003b00:	01800084 	movi	r6,2
 4003b04:	000b883a 	mov	r5,zero
 4003b08:	1009883a 	mov	r4,r2
 4003b0c:	40003c80 	call	40003c8 <draw>
				draw(eight, COLOR08_GRAY, 2,1 );
 4003b10:	01c00044 	movi	r7,1
 4003b14:	01800084 	movi	r6,2
 4003b18:	01402484 	movi	r5,146
 4003b1c:	010100f4 	movhi	r4,1027
 4003b20:	213d2a04 	addi	r4,r4,-2904
 4003b24:	40003c80 	call	40003c8 <draw>
				IOWR_ALTERA_AVALON_PIO_DATA (KEY_READ_REQ_BASE, 1);
 4003b28:	00c00044 	movi	r3,1
 4003b2c:	008200b4 	movhi	r2,2050
 4003b30:	10841804 	addi	r2,r2,4192
 4003b34:	10c00035 	stwio	r3,0(r2)
			}

			if(x==9)//9
 4003b38:	e0b7c117 	ldw	r2,-8444(fp)
 4003b3c:	10800258 	cmpnei	r2,r2,9
 4003b40:	1000101e 	bne	r2,zero,4003b84 <main+0x35b0>
			{
				draw(white, COLOR08_BLACK, 2,1 );
 4003b44:	e0b95e04 	addi	r2,fp,-6792
 4003b48:	01c00044 	movi	r7,1
 4003b4c:	01800084 	movi	r6,2
 4003b50:	000b883a 	mov	r5,zero
 4003b54:	1009883a 	mov	r4,r2
 4003b58:	40003c80 	call	40003c8 <draw>
				draw(nine, COLOR08_GRAY, 2,1 );
 4003b5c:	01c00044 	movi	r7,1
 4003b60:	01800084 	movi	r6,2
 4003b64:	01402484 	movi	r5,146
 4003b68:	010100f4 	movhi	r4,1027
 4003b6c:	213eaa04 	addi	r4,r4,-1368
 4003b70:	40003c80 	call	40003c8 <draw>
				IOWR_ALTERA_AVALON_PIO_DATA (KEY_READ_REQ_BASE, 1);
 4003b74:	00c00044 	movi	r3,1
 4003b78:	008200b4 	movhi	r2,2050
 4003b7c:	10841804 	addi	r2,r2,4192
 4003b80:	10c00035 	stwio	r3,0(r2)
			}

			if(x==10)//10
 4003b84:	e0b7c117 	ldw	r2,-8444(fp)
 4003b88:	10800298 	cmpnei	r2,r2,10
 4003b8c:	10001c1e 	bne	r2,zero,4003c00 <main+0x362c>
			{
				draw(white, COLOR08_BLACK, 2,1 );
 4003b90:	e0b95e04 	addi	r2,fp,-6792
 4003b94:	01c00044 	movi	r7,1
 4003b98:	01800084 	movi	r6,2
 4003b9c:	000b883a 	mov	r5,zero
 4003ba0:	1009883a 	mov	r4,r2
 4003ba4:	40003c80 	call	40003c8 <draw>
				draw(white, COLOR08_BLACK, 1,1 );
 4003ba8:	e0b95e04 	addi	r2,fp,-6792
 4003bac:	01c00044 	movi	r7,1
 4003bb0:	01800044 	movi	r6,1
 4003bb4:	000b883a 	mov	r5,zero
 4003bb8:	1009883a 	mov	r4,r2
 4003bbc:	40003c80 	call	40003c8 <draw>
				draw(zero, COLOR08_GRAY, 2,1 );
 4003bc0:	01c00044 	movi	r7,1
 4003bc4:	01800084 	movi	r6,2
 4003bc8:	01402484 	movi	r5,146
 4003bcc:	010100f4 	movhi	r4,1027
 4003bd0:	21312a04 	addi	r4,r4,-15192
 4003bd4:	40003c80 	call	40003c8 <draw>
				draw(one, COLOR08_GRAY, 1,1 );
 4003bd8:	01c00044 	movi	r7,1
 4003bdc:	01800044 	movi	r6,1
 4003be0:	01402484 	movi	r5,146
 4003be4:	010100f4 	movhi	r4,1027
 4003be8:	2132aa04 	addi	r4,r4,-13656
 4003bec:	40003c80 	call	40003c8 <draw>
				IOWR_ALTERA_AVALON_PIO_DATA (KEY_READ_REQ_BASE, 1);
 4003bf0:	00c00044 	movi	r3,1
 4003bf4:	008200b4 	movhi	r2,2050
 4003bf8:	10841804 	addi	r2,r2,4192
 4003bfc:	10c00035 	stwio	r3,0(r2)
			}

			if(x==11)//11
 4003c00:	e0b7c117 	ldw	r2,-8444(fp)
 4003c04:	108002d8 	cmpnei	r2,r2,11
 4003c08:	10001c1e 	bne	r2,zero,4003c7c <main+0x36a8>
			{
				draw(white, COLOR08_BLACK, 2,1 );
 4003c0c:	e0b95e04 	addi	r2,fp,-6792
 4003c10:	01c00044 	movi	r7,1
 4003c14:	01800084 	movi	r6,2
 4003c18:	000b883a 	mov	r5,zero
 4003c1c:	1009883a 	mov	r4,r2
 4003c20:	40003c80 	call	40003c8 <draw>
				draw(white, COLOR08_BLACK, 1,1 );
 4003c24:	e0b95e04 	addi	r2,fp,-6792
 4003c28:	01c00044 	movi	r7,1
 4003c2c:	01800044 	movi	r6,1
 4003c30:	000b883a 	mov	r5,zero
 4003c34:	1009883a 	mov	r4,r2
 4003c38:	40003c80 	call	40003c8 <draw>
				draw(one, COLOR08_GRAY, 2,1 );
 4003c3c:	01c00044 	movi	r7,1
 4003c40:	01800084 	movi	r6,2
 4003c44:	01402484 	movi	r5,146
 4003c48:	010100f4 	movhi	r4,1027
 4003c4c:	2132aa04 	addi	r4,r4,-13656
 4003c50:	40003c80 	call	40003c8 <draw>
				draw(one, COLOR08_GRAY, 1,1 );
 4003c54:	01c00044 	movi	r7,1
 4003c58:	01800044 	movi	r6,1
 4003c5c:	01402484 	movi	r5,146
 4003c60:	010100f4 	movhi	r4,1027
 4003c64:	2132aa04 	addi	r4,r4,-13656
 4003c68:	40003c80 	call	40003c8 <draw>
				IOWR_ALTERA_AVALON_PIO_DATA (KEY_READ_REQ_BASE, 1);
 4003c6c:	00c00044 	movi	r3,1
 4003c70:	008200b4 	movhi	r2,2050
 4003c74:	10841804 	addi	r2,r2,4192
 4003c78:	10c00035 	stwio	r3,0(r2)
			}

			if(x==12)//12
 4003c7c:	e0b7c117 	ldw	r2,-8444(fp)
 4003c80:	10800318 	cmpnei	r2,r2,12
 4003c84:	10001c1e 	bne	r2,zero,4003cf8 <main+0x3724>
			{
				draw(white, COLOR08_BLACK, 2,1 );
 4003c88:	e0b95e04 	addi	r2,fp,-6792
 4003c8c:	01c00044 	movi	r7,1
 4003c90:	01800084 	movi	r6,2
 4003c94:	000b883a 	mov	r5,zero
 4003c98:	1009883a 	mov	r4,r2
 4003c9c:	40003c80 	call	40003c8 <draw>
				draw(white, COLOR08_BLACK, 1,1 );
 4003ca0:	e0b95e04 	addi	r2,fp,-6792
 4003ca4:	01c00044 	movi	r7,1
 4003ca8:	01800044 	movi	r6,1
 4003cac:	000b883a 	mov	r5,zero
 4003cb0:	1009883a 	mov	r4,r2
 4003cb4:	40003c80 	call	40003c8 <draw>
				draw(two, COLOR08_GRAY, 2,1 );
 4003cb8:	01c00044 	movi	r7,1
 4003cbc:	01800084 	movi	r6,2
 4003cc0:	01402484 	movi	r5,146
 4003cc4:	010100f4 	movhi	r4,1027
 4003cc8:	21342a04 	addi	r4,r4,-12120
 4003ccc:	40003c80 	call	40003c8 <draw>
				draw(one, COLOR08_GRAY, 1,1 );
 4003cd0:	01c00044 	movi	r7,1
 4003cd4:	01800044 	movi	r6,1
 4003cd8:	01402484 	movi	r5,146
 4003cdc:	010100f4 	movhi	r4,1027
 4003ce0:	2132aa04 	addi	r4,r4,-13656
 4003ce4:	40003c80 	call	40003c8 <draw>
				IOWR_ALTERA_AVALON_PIO_DATA (KEY_READ_REQ_BASE, 1);
 4003ce8:	00c00044 	movi	r3,1
 4003cec:	008200b4 	movhi	r2,2050
 4003cf0:	10841804 	addi	r2,r2,4192
 4003cf4:	10c00035 	stwio	r3,0(r2)
			}

			if(x==13)//13
 4003cf8:	e0b7c117 	ldw	r2,-8444(fp)
 4003cfc:	10800358 	cmpnei	r2,r2,13
 4003d00:	10001c1e 	bne	r2,zero,4003d74 <main+0x37a0>
			{
				draw(white, COLOR08_BLACK, 2,1 );
 4003d04:	e0b95e04 	addi	r2,fp,-6792
 4003d08:	01c00044 	movi	r7,1
 4003d0c:	01800084 	movi	r6,2
 4003d10:	000b883a 	mov	r5,zero
 4003d14:	1009883a 	mov	r4,r2
 4003d18:	40003c80 	call	40003c8 <draw>
				draw(white, COLOR08_BLACK, 1,1 );
 4003d1c:	e0b95e04 	addi	r2,fp,-6792
 4003d20:	01c00044 	movi	r7,1
 4003d24:	01800044 	movi	r6,1
 4003d28:	000b883a 	mov	r5,zero
 4003d2c:	1009883a 	mov	r4,r2
 4003d30:	40003c80 	call	40003c8 <draw>
				draw(three, COLOR08_GRAY, 2,1 );
 4003d34:	01c00044 	movi	r7,1
 4003d38:	01800084 	movi	r6,2
 4003d3c:	01402484 	movi	r5,146
 4003d40:	010100f4 	movhi	r4,1027
 4003d44:	2135aa04 	addi	r4,r4,-10584
 4003d48:	40003c80 	call	40003c8 <draw>
				draw(one, COLOR08_GRAY, 1,1 );
 4003d4c:	01c00044 	movi	r7,1
 4003d50:	01800044 	movi	r6,1
 4003d54:	01402484 	movi	r5,146
 4003d58:	010100f4 	movhi	r4,1027
 4003d5c:	2132aa04 	addi	r4,r4,-13656
 4003d60:	40003c80 	call	40003c8 <draw>
				IOWR_ALTERA_AVALON_PIO_DATA (KEY_READ_REQ_BASE, 1);
 4003d64:	00c00044 	movi	r3,1
 4003d68:	008200b4 	movhi	r2,2050
 4003d6c:	10841804 	addi	r2,r2,4192
 4003d70:	10c00035 	stwio	r3,0(r2)
			}

			if(x==14)//14
 4003d74:	e0b7c117 	ldw	r2,-8444(fp)
 4003d78:	10800398 	cmpnei	r2,r2,14
 4003d7c:	10001c1e 	bne	r2,zero,4003df0 <main+0x381c>
			{
				draw(white, COLOR08_BLACK, 2,1 );
 4003d80:	e0b95e04 	addi	r2,fp,-6792
 4003d84:	01c00044 	movi	r7,1
 4003d88:	01800084 	movi	r6,2
 4003d8c:	000b883a 	mov	r5,zero
 4003d90:	1009883a 	mov	r4,r2
 4003d94:	40003c80 	call	40003c8 <draw>
				draw(white, COLOR08_BLACK, 1,1 );
 4003d98:	e0b95e04 	addi	r2,fp,-6792
 4003d9c:	01c00044 	movi	r7,1
 4003da0:	01800044 	movi	r6,1
 4003da4:	000b883a 	mov	r5,zero
 4003da8:	1009883a 	mov	r4,r2
 4003dac:	40003c80 	call	40003c8 <draw>
				draw(four, COLOR08_GRAY, 2,1 );
 4003db0:	01c00044 	movi	r7,1
 4003db4:	01800084 	movi	r6,2
 4003db8:	01402484 	movi	r5,146
 4003dbc:	010100f4 	movhi	r4,1027
 4003dc0:	21372a04 	addi	r4,r4,-9048
 4003dc4:	40003c80 	call	40003c8 <draw>
				draw(one, COLOR08_GRAY, 1,1 );
 4003dc8:	01c00044 	movi	r7,1
 4003dcc:	01800044 	movi	r6,1
 4003dd0:	01402484 	movi	r5,146
 4003dd4:	010100f4 	movhi	r4,1027
 4003dd8:	2132aa04 	addi	r4,r4,-13656
 4003ddc:	40003c80 	call	40003c8 <draw>
				IOWR_ALTERA_AVALON_PIO_DATA (KEY_READ_REQ_BASE, 1);
 4003de0:	00c00044 	movi	r3,1
 4003de4:	008200b4 	movhi	r2,2050
 4003de8:	10841804 	addi	r2,r2,4192
 4003dec:	10c00035 	stwio	r3,0(r2)
			}

			if(x==15)//15
 4003df0:	e0b7c117 	ldw	r2,-8444(fp)
 4003df4:	108003d8 	cmpnei	r2,r2,15
 4003df8:	10001c1e 	bne	r2,zero,4003e6c <main+0x3898>
			{
				draw(white, COLOR08_BLACK, 2,1 );
 4003dfc:	e0b95e04 	addi	r2,fp,-6792
 4003e00:	01c00044 	movi	r7,1
 4003e04:	01800084 	movi	r6,2
 4003e08:	000b883a 	mov	r5,zero
 4003e0c:	1009883a 	mov	r4,r2
 4003e10:	40003c80 	call	40003c8 <draw>
				draw(white, COLOR08_BLACK, 1,1 );
 4003e14:	e0b95e04 	addi	r2,fp,-6792
 4003e18:	01c00044 	movi	r7,1
 4003e1c:	01800044 	movi	r6,1
 4003e20:	000b883a 	mov	r5,zero
 4003e24:	1009883a 	mov	r4,r2
 4003e28:	40003c80 	call	40003c8 <draw>
				draw(five, COLOR08_GRAY, 2,1 );
 4003e2c:	01c00044 	movi	r7,1
 4003e30:	01800084 	movi	r6,2
 4003e34:	01402484 	movi	r5,146
 4003e38:	010100f4 	movhi	r4,1027
 4003e3c:	2138aa04 	addi	r4,r4,-7512
 4003e40:	40003c80 	call	40003c8 <draw>
				draw(one, COLOR08_GRAY, 1,1 );
 4003e44:	01c00044 	movi	r7,1
 4003e48:	01800044 	movi	r6,1
 4003e4c:	01402484 	movi	r5,146
 4003e50:	010100f4 	movhi	r4,1027
 4003e54:	2132aa04 	addi	r4,r4,-13656
 4003e58:	40003c80 	call	40003c8 <draw>
				IOWR_ALTERA_AVALON_PIO_DATA (KEY_READ_REQ_BASE, 1);
 4003e5c:	00c00044 	movi	r3,1
 4003e60:	008200b4 	movhi	r2,2050
 4003e64:	10841804 	addi	r2,r2,4192
 4003e68:	10c00035 	stwio	r3,0(r2)
			}

			if(x==16)//16
 4003e6c:	e0b7c117 	ldw	r2,-8444(fp)
 4003e70:	10800418 	cmpnei	r2,r2,16
 4003e74:	10001c1e 	bne	r2,zero,4003ee8 <main+0x3914>
			{
				draw(white, COLOR08_BLACK, 2,1 );
 4003e78:	e0b95e04 	addi	r2,fp,-6792
 4003e7c:	01c00044 	movi	r7,1
 4003e80:	01800084 	movi	r6,2
 4003e84:	000b883a 	mov	r5,zero
 4003e88:	1009883a 	mov	r4,r2
 4003e8c:	40003c80 	call	40003c8 <draw>
				draw(white, COLOR08_BLACK, 1,1 );
 4003e90:	e0b95e04 	addi	r2,fp,-6792
 4003e94:	01c00044 	movi	r7,1
 4003e98:	01800044 	movi	r6,1
 4003e9c:	000b883a 	mov	r5,zero
 4003ea0:	1009883a 	mov	r4,r2
 4003ea4:	40003c80 	call	40003c8 <draw>
				draw(six, COLOR08_GRAY, 2,1 );
 4003ea8:	01c00044 	movi	r7,1
 4003eac:	01800084 	movi	r6,2
 4003eb0:	01402484 	movi	r5,146
 4003eb4:	010100f4 	movhi	r4,1027
 4003eb8:	213a2a04 	addi	r4,r4,-5976
 4003ebc:	40003c80 	call	40003c8 <draw>
				draw(one, COLOR08_GRAY, 1,1 );
 4003ec0:	01c00044 	movi	r7,1
 4003ec4:	01800044 	movi	r6,1
 4003ec8:	01402484 	movi	r5,146
 4003ecc:	010100f4 	movhi	r4,1027
 4003ed0:	2132aa04 	addi	r4,r4,-13656
 4003ed4:	40003c80 	call	40003c8 <draw>
				IOWR_ALTERA_AVALON_PIO_DATA (KEY_READ_REQ_BASE, 1);
 4003ed8:	00c00044 	movi	r3,1
 4003edc:	008200b4 	movhi	r2,2050
 4003ee0:	10841804 	addi	r2,r2,4192
 4003ee4:	10c00035 	stwio	r3,0(r2)
			}

			if(x==17)//17
 4003ee8:	e0b7c117 	ldw	r2,-8444(fp)
 4003eec:	10800458 	cmpnei	r2,r2,17
 4003ef0:	10001c1e 	bne	r2,zero,4003f64 <main+0x3990>
			{
				draw(white, COLOR08_BLACK, 2,1 );
 4003ef4:	e0b95e04 	addi	r2,fp,-6792
 4003ef8:	01c00044 	movi	r7,1
 4003efc:	01800084 	movi	r6,2
 4003f00:	000b883a 	mov	r5,zero
 4003f04:	1009883a 	mov	r4,r2
 4003f08:	40003c80 	call	40003c8 <draw>
				draw(white, COLOR08_BLACK, 1,1 );
 4003f0c:	e0b95e04 	addi	r2,fp,-6792
 4003f10:	01c00044 	movi	r7,1
 4003f14:	01800044 	movi	r6,1
 4003f18:	000b883a 	mov	r5,zero
 4003f1c:	1009883a 	mov	r4,r2
 4003f20:	40003c80 	call	40003c8 <draw>
				draw(seven, COLOR08_GRAY, 2,1 );
 4003f24:	01c00044 	movi	r7,1
 4003f28:	01800084 	movi	r6,2
 4003f2c:	01402484 	movi	r5,146
 4003f30:	010100f4 	movhi	r4,1027
 4003f34:	213baa04 	addi	r4,r4,-4440
 4003f38:	40003c80 	call	40003c8 <draw>
				draw(one, COLOR08_GRAY, 1,1 );
 4003f3c:	01c00044 	movi	r7,1
 4003f40:	01800044 	movi	r6,1
 4003f44:	01402484 	movi	r5,146
 4003f48:	010100f4 	movhi	r4,1027
 4003f4c:	2132aa04 	addi	r4,r4,-13656
 4003f50:	40003c80 	call	40003c8 <draw>
				IOWR_ALTERA_AVALON_PIO_DATA (KEY_READ_REQ_BASE, 1);
 4003f54:	00c00044 	movi	r3,1
 4003f58:	008200b4 	movhi	r2,2050
 4003f5c:	10841804 	addi	r2,r2,4192
 4003f60:	10c00035 	stwio	r3,0(r2)
			}

			if(x==18)//18
 4003f64:	e0b7c117 	ldw	r2,-8444(fp)
 4003f68:	10800498 	cmpnei	r2,r2,18
 4003f6c:	10001c1e 	bne	r2,zero,4003fe0 <main+0x3a0c>
			{
				draw(white, COLOR08_BLACK, 2,1 );
 4003f70:	e0b95e04 	addi	r2,fp,-6792
 4003f74:	01c00044 	movi	r7,1
 4003f78:	01800084 	movi	r6,2
 4003f7c:	000b883a 	mov	r5,zero
 4003f80:	1009883a 	mov	r4,r2
 4003f84:	40003c80 	call	40003c8 <draw>
				draw(white, COLOR08_BLACK, 1,1 );
 4003f88:	e0b95e04 	addi	r2,fp,-6792
 4003f8c:	01c00044 	movi	r7,1
 4003f90:	01800044 	movi	r6,1
 4003f94:	000b883a 	mov	r5,zero
 4003f98:	1009883a 	mov	r4,r2
 4003f9c:	40003c80 	call	40003c8 <draw>
				draw(eight, COLOR08_GRAY, 2,1 );
 4003fa0:	01c00044 	movi	r7,1
 4003fa4:	01800084 	movi	r6,2
 4003fa8:	01402484 	movi	r5,146
 4003fac:	010100f4 	movhi	r4,1027
 4003fb0:	213d2a04 	addi	r4,r4,-2904
 4003fb4:	40003c80 	call	40003c8 <draw>
				draw(one, COLOR08_GRAY, 1,1 );
 4003fb8:	01c00044 	movi	r7,1
 4003fbc:	01800044 	movi	r6,1
 4003fc0:	01402484 	movi	r5,146
 4003fc4:	010100f4 	movhi	r4,1027
 4003fc8:	2132aa04 	addi	r4,r4,-13656
 4003fcc:	40003c80 	call	40003c8 <draw>
				IOWR_ALTERA_AVALON_PIO_DATA (KEY_READ_REQ_BASE, 1);
 4003fd0:	00c00044 	movi	r3,1
 4003fd4:	008200b4 	movhi	r2,2050
 4003fd8:	10841804 	addi	r2,r2,4192
 4003fdc:	10c00035 	stwio	r3,0(r2)
			}

			if(x==19)//19
 4003fe0:	e0b7c117 	ldw	r2,-8444(fp)
 4003fe4:	108004d8 	cmpnei	r2,r2,19
 4003fe8:	10001c1e 	bne	r2,zero,400405c <main+0x3a88>
			{
				draw(white, COLOR08_BLACK, 2,1 );
 4003fec:	e0b95e04 	addi	r2,fp,-6792
 4003ff0:	01c00044 	movi	r7,1
 4003ff4:	01800084 	movi	r6,2
 4003ff8:	000b883a 	mov	r5,zero
 4003ffc:	1009883a 	mov	r4,r2
 4004000:	40003c80 	call	40003c8 <draw>
				draw(white, COLOR08_BLACK, 1,1 );
 4004004:	e0b95e04 	addi	r2,fp,-6792
 4004008:	01c00044 	movi	r7,1
 400400c:	01800044 	movi	r6,1
 4004010:	000b883a 	mov	r5,zero
 4004014:	1009883a 	mov	r4,r2
 4004018:	40003c80 	call	40003c8 <draw>
				draw(nine, COLOR08_GRAY, 2,1 );
 400401c:	01c00044 	movi	r7,1
 4004020:	01800084 	movi	r6,2
 4004024:	01402484 	movi	r5,146
 4004028:	010100f4 	movhi	r4,1027
 400402c:	213eaa04 	addi	r4,r4,-1368
 4004030:	40003c80 	call	40003c8 <draw>
				draw(one, COLOR08_GRAY, 1,1 );
 4004034:	01c00044 	movi	r7,1
 4004038:	01800044 	movi	r6,1
 400403c:	01402484 	movi	r5,146
 4004040:	010100f4 	movhi	r4,1027
 4004044:	2132aa04 	addi	r4,r4,-13656
 4004048:	40003c80 	call	40003c8 <draw>
				IOWR_ALTERA_AVALON_PIO_DATA (KEY_READ_REQ_BASE, 1);
 400404c:	00c00044 	movi	r3,1
 4004050:	008200b4 	movhi	r2,2050
 4004054:	10841804 	addi	r2,r2,4192
 4004058:	10c00035 	stwio	r3,0(r2)

		}


		//gameboard select
		if(button==5)//gameboard
 400405c:	e0b7da17 	ldw	r2,-8344(fp)
 4004060:	10800158 	cmpnei	r2,r2,5
 4004064:	10000126 	beq	r2,zero,400406c <main+0x3a98>
 4004068:	4014bf01 	jmpi	4014bf0 <main+0x1461c>

		{
			if(gameboard[y][x]==0)//0
 400406c:	e0b7c217 	ldw	r2,-8440(fp)
 4004070:	01400504 	movi	r5,20
 4004074:	1009883a 	mov	r4,r2
 4004078:	40191000 	call	4019100 <__mulsi3>
 400407c:	1007883a 	mov	r3,r2
 4004080:	e0b7c117 	ldw	r2,-8444(fp)
 4004084:	1885883a 	add	r2,r3,r2
 4004088:	1085883a 	add	r2,r2,r2
 400408c:	1085883a 	add	r2,r2,r2
 4004090:	e0f7c104 	addi	r3,fp,-8444
 4004094:	1885883a 	add	r2,r3,r2
 4004098:	10879d04 	addi	r2,r2,7796
 400409c:	10800017 	ldw	r2,0(r2)
 40040a0:	1007bb1e 	bne	r2,zero,4005f90 <main+0x59bc>
						{

							//horizontal0
							if ((gameboard [y][x]==gameboard [y][x+1] && gameboard [y][x+1]== gameboard [y][x+2]) || (gameboard[y][x]==0 && gameboard[y][x+1]==-10) )//(0,0,0)
 40040a4:	e0b7c217 	ldw	r2,-8440(fp)
 40040a8:	01400504 	movi	r5,20
 40040ac:	1009883a 	mov	r4,r2
 40040b0:	40191000 	call	4019100 <__mulsi3>
 40040b4:	1007883a 	mov	r3,r2
 40040b8:	e0b7c117 	ldw	r2,-8444(fp)
 40040bc:	1885883a 	add	r2,r3,r2
 40040c0:	1085883a 	add	r2,r2,r2
 40040c4:	1085883a 	add	r2,r2,r2
 40040c8:	e0f7c104 	addi	r3,fp,-8444
 40040cc:	1885883a 	add	r2,r3,r2
 40040d0:	10879d04 	addi	r2,r2,7796
 40040d4:	14000017 	ldw	r16,0(r2)
 40040d8:	e0b7c117 	ldw	r2,-8444(fp)
 40040dc:	14400044 	addi	r17,r2,1
 40040e0:	e0b7c217 	ldw	r2,-8440(fp)
 40040e4:	01400504 	movi	r5,20
 40040e8:	1009883a 	mov	r4,r2
 40040ec:	40191000 	call	4019100 <__mulsi3>
 40040f0:	1445883a 	add	r2,r2,r17
 40040f4:	1085883a 	add	r2,r2,r2
 40040f8:	1085883a 	add	r2,r2,r2
 40040fc:	e0f7c104 	addi	r3,fp,-8444
 4004100:	1885883a 	add	r2,r3,r2
 4004104:	10879d04 	addi	r2,r2,7796
 4004108:	10800017 	ldw	r2,0(r2)
 400410c:	80801b1e 	bne	r16,r2,400417c <main+0x3ba8>
 4004110:	e0b7c117 	ldw	r2,-8444(fp)
 4004114:	14000044 	addi	r16,r2,1
 4004118:	e0b7c217 	ldw	r2,-8440(fp)
 400411c:	01400504 	movi	r5,20
 4004120:	1009883a 	mov	r4,r2
 4004124:	40191000 	call	4019100 <__mulsi3>
 4004128:	1405883a 	add	r2,r2,r16
 400412c:	1085883a 	add	r2,r2,r2
 4004130:	1085883a 	add	r2,r2,r2
 4004134:	e0f7c104 	addi	r3,fp,-8444
 4004138:	1885883a 	add	r2,r3,r2
 400413c:	10879d04 	addi	r2,r2,7796
 4004140:	14000017 	ldw	r16,0(r2)
 4004144:	e0b7c117 	ldw	r2,-8444(fp)
 4004148:	14400084 	addi	r17,r2,2
 400414c:	e0b7c217 	ldw	r2,-8440(fp)
 4004150:	01400504 	movi	r5,20
 4004154:	1009883a 	mov	r4,r2
 4004158:	40191000 	call	4019100 <__mulsi3>
 400415c:	1445883a 	add	r2,r2,r17
 4004160:	1085883a 	add	r2,r2,r2
 4004164:	1085883a 	add	r2,r2,r2
 4004168:	e0f7c104 	addi	r3,fp,-8444
 400416c:	1885883a 	add	r2,r3,r2
 4004170:	10879d04 	addi	r2,r2,7796
 4004174:	10800017 	ldw	r2,0(r2)
 4004178:	80801d26 	beq	r16,r2,40041f0 <main+0x3c1c>
 400417c:	e0b7c217 	ldw	r2,-8440(fp)
 4004180:	01400504 	movi	r5,20
 4004184:	1009883a 	mov	r4,r2
 4004188:	40191000 	call	4019100 <__mulsi3>
 400418c:	1007883a 	mov	r3,r2
 4004190:	e0b7c117 	ldw	r2,-8444(fp)
 4004194:	1885883a 	add	r2,r3,r2
 4004198:	1085883a 	add	r2,r2,r2
 400419c:	1085883a 	add	r2,r2,r2
 40041a0:	e0f7c104 	addi	r3,fp,-8444
 40041a4:	1885883a 	add	r2,r3,r2
 40041a8:	10879d04 	addi	r2,r2,7796
 40041ac:	10800017 	ldw	r2,0(r2)
 40041b0:	1000311e 	bne	r2,zero,4004278 <main+0x3ca4>
 40041b4:	e0b7c117 	ldw	r2,-8444(fp)
 40041b8:	14000044 	addi	r16,r2,1
 40041bc:	e0b7c217 	ldw	r2,-8440(fp)
 40041c0:	01400504 	movi	r5,20
 40041c4:	1009883a 	mov	r4,r2
 40041c8:	40191000 	call	4019100 <__mulsi3>
 40041cc:	1405883a 	add	r2,r2,r16
 40041d0:	1085883a 	add	r2,r2,r2
 40041d4:	1085883a 	add	r2,r2,r2
 40041d8:	e0f7c104 	addi	r3,fp,-8444
 40041dc:	1885883a 	add	r2,r3,r2
 40041e0:	10879d04 	addi	r2,r2,7796
 40041e4:	10800017 	ldw	r2,0(r2)
 40041e8:	10bffd98 	cmpnei	r2,r2,-10
 40041ec:	1000221e 	bne	r2,zero,4004278 <main+0x3ca4>
							{
								draw(white, COLOR08_WHITE, x,y+2 );
 40041f0:	e0b7c217 	ldw	r2,-8440(fp)
 40041f4:	10c00084 	addi	r3,r2,2
 40041f8:	e0b95e04 	addi	r2,fp,-6792
 40041fc:	180f883a 	mov	r7,r3
 4004200:	e1b7c117 	ldw	r6,-8444(fp)
 4004204:	01403fc4 	movi	r5,255
 4004208:	1009883a 	mov	r4,r2
 400420c:	40003c80 	call	40003c8 <draw>
								draw(zero, COLOR08_BLACK, x,y+2 );
 4004210:	e0b7c217 	ldw	r2,-8440(fp)
 4004214:	10800084 	addi	r2,r2,2
 4004218:	100f883a 	mov	r7,r2
 400421c:	e1b7c117 	ldw	r6,-8444(fp)
 4004220:	000b883a 	mov	r5,zero
 4004224:	010100f4 	movhi	r4,1027
 4004228:	21312a04 	addi	r4,r4,-15192
 400422c:	40003c80 	call	40003c8 <draw>
								gameboard[y][x]=-10;
 4004230:	e0b7c217 	ldw	r2,-8440(fp)
 4004234:	01400504 	movi	r5,20
 4004238:	1009883a 	mov	r4,r2
 400423c:	40191000 	call	4019100 <__mulsi3>
 4004240:	1007883a 	mov	r3,r2
 4004244:	e0b7c117 	ldw	r2,-8444(fp)
 4004248:	1885883a 	add	r2,r3,r2
 400424c:	1085883a 	add	r2,r2,r2
 4004250:	1085883a 	add	r2,r2,r2
 4004254:	e0f7c104 	addi	r3,fp,-8444
 4004258:	1885883a 	add	r2,r3,r2
 400425c:	10879d04 	addi	r2,r2,7796
 4004260:	00fffd84 	movi	r3,-10
 4004264:	10c00015 	stw	r3,0(r2)
								IOWR_ALTERA_AVALON_PIO_DATA (KEY_READ_REQ_BASE, 1);
 4004268:	00c00044 	movi	r3,1
 400426c:	008200b4 	movhi	r2,2050
 4004270:	10841804 	addi	r2,r2,4192
 4004274:	10c00035 	stwio	r3,0(r2)
							}

							if ((gameboard [y][x]==gameboard [y][x-1] && gameboard [y][x]== gameboard [y][x+1]) || (gameboard [y][x]==0 && gameboard [y][x-1]==-10) || (gameboard [y][x]==0 && gameboard [y][x+1]==-10))//(
 4004278:	e0b7c217 	ldw	r2,-8440(fp)
 400427c:	01400504 	movi	r5,20
 4004280:	1009883a 	mov	r4,r2
 4004284:	40191000 	call	4019100 <__mulsi3>
 4004288:	1007883a 	mov	r3,r2
 400428c:	e0b7c117 	ldw	r2,-8444(fp)
 4004290:	1885883a 	add	r2,r3,r2
 4004294:	1085883a 	add	r2,r2,r2
 4004298:	1085883a 	add	r2,r2,r2
 400429c:	e0f7c104 	addi	r3,fp,-8444
 40042a0:	1885883a 	add	r2,r3,r2
 40042a4:	10879d04 	addi	r2,r2,7796
 40042a8:	14000017 	ldw	r16,0(r2)
 40042ac:	e0b7c117 	ldw	r2,-8444(fp)
 40042b0:	147fffc4 	addi	r17,r2,-1
 40042b4:	e0b7c217 	ldw	r2,-8440(fp)
 40042b8:	01400504 	movi	r5,20
 40042bc:	1009883a 	mov	r4,r2
 40042c0:	40191000 	call	4019100 <__mulsi3>
 40042c4:	1445883a 	add	r2,r2,r17
 40042c8:	1085883a 	add	r2,r2,r2
 40042cc:	1085883a 	add	r2,r2,r2
 40042d0:	e0f7c104 	addi	r3,fp,-8444
 40042d4:	1885883a 	add	r2,r3,r2
 40042d8:	10879d04 	addi	r2,r2,7796
 40042dc:	10800017 	ldw	r2,0(r2)
 40042e0:	80801b1e 	bne	r16,r2,4004350 <main+0x3d7c>
 40042e4:	e0b7c217 	ldw	r2,-8440(fp)
 40042e8:	01400504 	movi	r5,20
 40042ec:	1009883a 	mov	r4,r2
 40042f0:	40191000 	call	4019100 <__mulsi3>
 40042f4:	1007883a 	mov	r3,r2
 40042f8:	e0b7c117 	ldw	r2,-8444(fp)
 40042fc:	1885883a 	add	r2,r3,r2
 4004300:	1085883a 	add	r2,r2,r2
 4004304:	1085883a 	add	r2,r2,r2
 4004308:	e0f7c104 	addi	r3,fp,-8444
 400430c:	1885883a 	add	r2,r3,r2
 4004310:	10879d04 	addi	r2,r2,7796
 4004314:	14000017 	ldw	r16,0(r2)
 4004318:	e0b7c117 	ldw	r2,-8444(fp)
 400431c:	14400044 	addi	r17,r2,1
 4004320:	e0b7c217 	ldw	r2,-8440(fp)
 4004324:	01400504 	movi	r5,20
 4004328:	1009883a 	mov	r4,r2
 400432c:	40191000 	call	4019100 <__mulsi3>
 4004330:	1445883a 	add	r2,r2,r17
 4004334:	1085883a 	add	r2,r2,r2
 4004338:	1085883a 	add	r2,r2,r2
 400433c:	e0f7c104 	addi	r3,fp,-8444
 4004340:	1885883a 	add	r2,r3,r2
 4004344:	10879d04 	addi	r2,r2,7796
 4004348:	10800017 	ldw	r2,0(r2)
 400434c:	80803a26 	beq	r16,r2,4004438 <main+0x3e64>
 4004350:	e0b7c217 	ldw	r2,-8440(fp)
 4004354:	01400504 	movi	r5,20
 4004358:	1009883a 	mov	r4,r2
 400435c:	40191000 	call	4019100 <__mulsi3>
 4004360:	1007883a 	mov	r3,r2
 4004364:	e0b7c117 	ldw	r2,-8444(fp)
 4004368:	1885883a 	add	r2,r3,r2
 400436c:	1085883a 	add	r2,r2,r2
 4004370:	1085883a 	add	r2,r2,r2
 4004374:	e0f7c104 	addi	r3,fp,-8444
 4004378:	1885883a 	add	r2,r3,r2
 400437c:	10879d04 	addi	r2,r2,7796
 4004380:	10800017 	ldw	r2,0(r2)
 4004384:	10000f1e 	bne	r2,zero,40043c4 <main+0x3df0>
 4004388:	e0b7c117 	ldw	r2,-8444(fp)
 400438c:	143fffc4 	addi	r16,r2,-1
 4004390:	e0b7c217 	ldw	r2,-8440(fp)
 4004394:	01400504 	movi	r5,20
 4004398:	1009883a 	mov	r4,r2
 400439c:	40191000 	call	4019100 <__mulsi3>
 40043a0:	1405883a 	add	r2,r2,r16
 40043a4:	1085883a 	add	r2,r2,r2
 40043a8:	1085883a 	add	r2,r2,r2
 40043ac:	e0f7c104 	addi	r3,fp,-8444
 40043b0:	1885883a 	add	r2,r3,r2
 40043b4:	10879d04 	addi	r2,r2,7796
 40043b8:	10800017 	ldw	r2,0(r2)
 40043bc:	10bffda0 	cmpeqi	r2,r2,-10
 40043c0:	10001d1e 	bne	r2,zero,4004438 <main+0x3e64>
 40043c4:	e0b7c217 	ldw	r2,-8440(fp)
 40043c8:	01400504 	movi	r5,20
 40043cc:	1009883a 	mov	r4,r2
 40043d0:	40191000 	call	4019100 <__mulsi3>
 40043d4:	1007883a 	mov	r3,r2
 40043d8:	e0b7c117 	ldw	r2,-8444(fp)
 40043dc:	1885883a 	add	r2,r3,r2
 40043e0:	1085883a 	add	r2,r2,r2
 40043e4:	1085883a 	add	r2,r2,r2
 40043e8:	e0f7c104 	addi	r3,fp,-8444
 40043ec:	1885883a 	add	r2,r3,r2
 40043f0:	10879d04 	addi	r2,r2,7796
 40043f4:	10800017 	ldw	r2,0(r2)
 40043f8:	1000311e 	bne	r2,zero,40044c0 <main+0x3eec>
 40043fc:	e0b7c117 	ldw	r2,-8444(fp)
 4004400:	14000044 	addi	r16,r2,1
 4004404:	e0b7c217 	ldw	r2,-8440(fp)
 4004408:	01400504 	movi	r5,20
 400440c:	1009883a 	mov	r4,r2
 4004410:	40191000 	call	4019100 <__mulsi3>
 4004414:	1405883a 	add	r2,r2,r16
 4004418:	1085883a 	add	r2,r2,r2
 400441c:	1085883a 	add	r2,r2,r2
 4004420:	e0f7c104 	addi	r3,fp,-8444
 4004424:	1885883a 	add	r2,r3,r2
 4004428:	10879d04 	addi	r2,r2,7796
 400442c:	10800017 	ldw	r2,0(r2)
 4004430:	10bffd98 	cmpnei	r2,r2,-10
 4004434:	1000221e 	bne	r2,zero,40044c0 <main+0x3eec>
							{
								draw(white, COLOR08_WHITE, x,y+2 );
 4004438:	e0b7c217 	ldw	r2,-8440(fp)
 400443c:	10c00084 	addi	r3,r2,2
 4004440:	e0b95e04 	addi	r2,fp,-6792
 4004444:	180f883a 	mov	r7,r3
 4004448:	e1b7c117 	ldw	r6,-8444(fp)
 400444c:	01403fc4 	movi	r5,255
 4004450:	1009883a 	mov	r4,r2
 4004454:	40003c80 	call	40003c8 <draw>
								draw(zero, COLOR08_BLACK, x,y+2 );
 4004458:	e0b7c217 	ldw	r2,-8440(fp)
 400445c:	10800084 	addi	r2,r2,2
 4004460:	100f883a 	mov	r7,r2
 4004464:	e1b7c117 	ldw	r6,-8444(fp)
 4004468:	000b883a 	mov	r5,zero
 400446c:	010100f4 	movhi	r4,1027
 4004470:	21312a04 	addi	r4,r4,-15192
 4004474:	40003c80 	call	40003c8 <draw>
								gameboard[y][x]=-10;
 4004478:	e0b7c217 	ldw	r2,-8440(fp)
 400447c:	01400504 	movi	r5,20
 4004480:	1009883a 	mov	r4,r2
 4004484:	40191000 	call	4019100 <__mulsi3>
 4004488:	1007883a 	mov	r3,r2
 400448c:	e0b7c117 	ldw	r2,-8444(fp)
 4004490:	1885883a 	add	r2,r3,r2
 4004494:	1085883a 	add	r2,r2,r2
 4004498:	1085883a 	add	r2,r2,r2
 400449c:	e0f7c104 	addi	r3,fp,-8444
 40044a0:	1885883a 	add	r2,r3,r2
 40044a4:	10879d04 	addi	r2,r2,7796
 40044a8:	00fffd84 	movi	r3,-10
 40044ac:	10c00015 	stw	r3,0(r2)
								IOWR_ALTERA_AVALON_PIO_DATA (KEY_READ_REQ_BASE, 1);
 40044b0:	00c00044 	movi	r3,1
 40044b4:	008200b4 	movhi	r2,2050
 40044b8:	10841804 	addi	r2,r2,4192
 40044bc:	10c00035 	stwio	r3,0(r2)
							}

							if ((gameboard [y][x]==gameboard [y][x-1] && gameboard [y][x]== gameboard [y][x-2]))//00x
 40044c0:	e0b7c217 	ldw	r2,-8440(fp)
 40044c4:	01400504 	movi	r5,20
 40044c8:	1009883a 	mov	r4,r2
 40044cc:	40191000 	call	4019100 <__mulsi3>
 40044d0:	1007883a 	mov	r3,r2
 40044d4:	e0b7c117 	ldw	r2,-8444(fp)
 40044d8:	1885883a 	add	r2,r3,r2
 40044dc:	1085883a 	add	r2,r2,r2
 40044e0:	1085883a 	add	r2,r2,r2
 40044e4:	e0f7c104 	addi	r3,fp,-8444
 40044e8:	1885883a 	add	r2,r3,r2
 40044ec:	10879d04 	addi	r2,r2,7796
 40044f0:	14000017 	ldw	r16,0(r2)
 40044f4:	e0b7c117 	ldw	r2,-8444(fp)
 40044f8:	147fffc4 	addi	r17,r2,-1
 40044fc:	e0b7c217 	ldw	r2,-8440(fp)
 4004500:	01400504 	movi	r5,20
 4004504:	1009883a 	mov	r4,r2
 4004508:	40191000 	call	4019100 <__mulsi3>
 400450c:	1445883a 	add	r2,r2,r17
 4004510:	1085883a 	add	r2,r2,r2
 4004514:	1085883a 	add	r2,r2,r2
 4004518:	e0f7c104 	addi	r3,fp,-8444
 400451c:	1885883a 	add	r2,r3,r2
 4004520:	10879d04 	addi	r2,r2,7796
 4004524:	10800017 	ldw	r2,0(r2)
 4004528:	80803d1e 	bne	r16,r2,4004620 <main+0x404c>
 400452c:	e0b7c217 	ldw	r2,-8440(fp)
 4004530:	01400504 	movi	r5,20
 4004534:	1009883a 	mov	r4,r2
 4004538:	40191000 	call	4019100 <__mulsi3>
 400453c:	1007883a 	mov	r3,r2
 4004540:	e0b7c117 	ldw	r2,-8444(fp)
 4004544:	1885883a 	add	r2,r3,r2
 4004548:	1085883a 	add	r2,r2,r2
 400454c:	1085883a 	add	r2,r2,r2
 4004550:	e0f7c104 	addi	r3,fp,-8444
 4004554:	1885883a 	add	r2,r3,r2
 4004558:	10879d04 	addi	r2,r2,7796
 400455c:	14000017 	ldw	r16,0(r2)
 4004560:	e0b7c117 	ldw	r2,-8444(fp)
 4004564:	147fff84 	addi	r17,r2,-2
 4004568:	e0b7c217 	ldw	r2,-8440(fp)
 400456c:	01400504 	movi	r5,20
 4004570:	1009883a 	mov	r4,r2
 4004574:	40191000 	call	4019100 <__mulsi3>
 4004578:	1445883a 	add	r2,r2,r17
 400457c:	1085883a 	add	r2,r2,r2
 4004580:	1085883a 	add	r2,r2,r2
 4004584:	e0f7c104 	addi	r3,fp,-8444
 4004588:	1885883a 	add	r2,r3,r2
 400458c:	10879d04 	addi	r2,r2,7796
 4004590:	10800017 	ldw	r2,0(r2)
 4004594:	8080221e 	bne	r16,r2,4004620 <main+0x404c>
							{
								draw(white, COLOR08_WHITE, x,y+2 );
 4004598:	e0b7c217 	ldw	r2,-8440(fp)
 400459c:	10c00084 	addi	r3,r2,2
 40045a0:	e0b95e04 	addi	r2,fp,-6792
 40045a4:	180f883a 	mov	r7,r3
 40045a8:	e1b7c117 	ldw	r6,-8444(fp)
 40045ac:	01403fc4 	movi	r5,255
 40045b0:	1009883a 	mov	r4,r2
 40045b4:	40003c80 	call	40003c8 <draw>
								draw(zero, COLOR08_BLACK, x,y+2 );
 40045b8:	e0b7c217 	ldw	r2,-8440(fp)
 40045bc:	10800084 	addi	r2,r2,2
 40045c0:	100f883a 	mov	r7,r2
 40045c4:	e1b7c117 	ldw	r6,-8444(fp)
 40045c8:	000b883a 	mov	r5,zero
 40045cc:	010100f4 	movhi	r4,1027
 40045d0:	21312a04 	addi	r4,r4,-15192
 40045d4:	40003c80 	call	40003c8 <draw>
								gameboard[y][x]=-10;
 40045d8:	e0b7c217 	ldw	r2,-8440(fp)
 40045dc:	01400504 	movi	r5,20
 40045e0:	1009883a 	mov	r4,r2
 40045e4:	40191000 	call	4019100 <__mulsi3>
 40045e8:	1007883a 	mov	r3,r2
 40045ec:	e0b7c117 	ldw	r2,-8444(fp)
 40045f0:	1885883a 	add	r2,r3,r2
 40045f4:	1085883a 	add	r2,r2,r2
 40045f8:	1085883a 	add	r2,r2,r2
 40045fc:	e0f7c104 	addi	r3,fp,-8444
 4004600:	1885883a 	add	r2,r3,r2
 4004604:	10879d04 	addi	r2,r2,7796
 4004608:	00fffd84 	movi	r3,-10
 400460c:	10c00015 	stw	r3,0(r2)
								IOWR_ALTERA_AVALON_PIO_DATA (KEY_READ_REQ_BASE, 1);
 4004610:	00c00044 	movi	r3,1
 4004614:	008200b4 	movhi	r2,2050
 4004618:	10841804 	addi	r2,r2,4192
 400461c:	10c00035 	stwio	r3,0(r2)
							}
							if(gameboard[y][x]==0 && gameboard[y][x+1]==0 && gameboard[y][x+2]==-10)
 4004620:	e0b7c217 	ldw	r2,-8440(fp)
 4004624:	01400504 	movi	r5,20
 4004628:	1009883a 	mov	r4,r2
 400462c:	40191000 	call	4019100 <__mulsi3>
 4004630:	1007883a 	mov	r3,r2
 4004634:	e0b7c117 	ldw	r2,-8444(fp)
 4004638:	1885883a 	add	r2,r3,r2
 400463c:	1085883a 	add	r2,r2,r2
 4004640:	1085883a 	add	r2,r2,r2
 4004644:	e0f7c104 	addi	r3,fp,-8444
 4004648:	1885883a 	add	r2,r3,r2
 400464c:	10879d04 	addi	r2,r2,7796
 4004650:	10800017 	ldw	r2,0(r2)
 4004654:	10003f1e 	bne	r2,zero,4004754 <main+0x4180>
 4004658:	e0b7c117 	ldw	r2,-8444(fp)
 400465c:	14000044 	addi	r16,r2,1
 4004660:	e0b7c217 	ldw	r2,-8440(fp)
 4004664:	01400504 	movi	r5,20
 4004668:	1009883a 	mov	r4,r2
 400466c:	40191000 	call	4019100 <__mulsi3>
 4004670:	1405883a 	add	r2,r2,r16
 4004674:	1085883a 	add	r2,r2,r2
 4004678:	1085883a 	add	r2,r2,r2
 400467c:	e0f7c104 	addi	r3,fp,-8444
 4004680:	1885883a 	add	r2,r3,r2
 4004684:	10879d04 	addi	r2,r2,7796
 4004688:	10800017 	ldw	r2,0(r2)
 400468c:	1000311e 	bne	r2,zero,4004754 <main+0x4180>
 4004690:	e0b7c117 	ldw	r2,-8444(fp)
 4004694:	14000084 	addi	r16,r2,2
 4004698:	e0b7c217 	ldw	r2,-8440(fp)
 400469c:	01400504 	movi	r5,20
 40046a0:	1009883a 	mov	r4,r2
 40046a4:	40191000 	call	4019100 <__mulsi3>
 40046a8:	1405883a 	add	r2,r2,r16
 40046ac:	1085883a 	add	r2,r2,r2
 40046b0:	1085883a 	add	r2,r2,r2
 40046b4:	e0f7c104 	addi	r3,fp,-8444
 40046b8:	1885883a 	add	r2,r3,r2
 40046bc:	10879d04 	addi	r2,r2,7796
 40046c0:	10800017 	ldw	r2,0(r2)
 40046c4:	10bffd98 	cmpnei	r2,r2,-10
 40046c8:	1000221e 	bne	r2,zero,4004754 <main+0x4180>
							{
								draw(white, COLOR08_WHITE, x,y+2 );
 40046cc:	e0b7c217 	ldw	r2,-8440(fp)
 40046d0:	10c00084 	addi	r3,r2,2
 40046d4:	e0b95e04 	addi	r2,fp,-6792
 40046d8:	180f883a 	mov	r7,r3
 40046dc:	e1b7c117 	ldw	r6,-8444(fp)
 40046e0:	01403fc4 	movi	r5,255
 40046e4:	1009883a 	mov	r4,r2
 40046e8:	40003c80 	call	40003c8 <draw>
								draw(zero, COLOR08_BLACK, x,y+2 );
 40046ec:	e0b7c217 	ldw	r2,-8440(fp)
 40046f0:	10800084 	addi	r2,r2,2
 40046f4:	100f883a 	mov	r7,r2
 40046f8:	e1b7c117 	ldw	r6,-8444(fp)
 40046fc:	000b883a 	mov	r5,zero
 4004700:	010100f4 	movhi	r4,1027
 4004704:	21312a04 	addi	r4,r4,-15192
 4004708:	40003c80 	call	40003c8 <draw>
								gameboard[y][x]=-10;
 400470c:	e0b7c217 	ldw	r2,-8440(fp)
 4004710:	01400504 	movi	r5,20
 4004714:	1009883a 	mov	r4,r2
 4004718:	40191000 	call	4019100 <__mulsi3>
 400471c:	1007883a 	mov	r3,r2
 4004720:	e0b7c117 	ldw	r2,-8444(fp)
 4004724:	1885883a 	add	r2,r3,r2
 4004728:	1085883a 	add	r2,r2,r2
 400472c:	1085883a 	add	r2,r2,r2
 4004730:	e0f7c104 	addi	r3,fp,-8444
 4004734:	1885883a 	add	r2,r3,r2
 4004738:	10879d04 	addi	r2,r2,7796
 400473c:	00fffd84 	movi	r3,-10
 4004740:	10c00015 	stw	r3,0(r2)
								IOWR_ALTERA_AVALON_PIO_DATA (KEY_READ_REQ_BASE, 1);
 4004744:	00c00044 	movi	r3,1
 4004748:	008200b4 	movhi	r2,2050
 400474c:	10841804 	addi	r2,r2,4192
 4004750:	10c00035 	stwio	r3,0(r2)
							}
							/////////////////////////////////

							//vertical0
							if ((gameboard [y][x]==gameboard [y+1][x] && gameboard [y+1][x]== gameboard [y+2][x]) || (gameboard [y][x]==0 && gameboard [y+1][x]==-10))//xmb
 4004754:	e0b7c217 	ldw	r2,-8440(fp)
 4004758:	01400504 	movi	r5,20
 400475c:	1009883a 	mov	r4,r2
 4004760:	40191000 	call	4019100 <__mulsi3>
 4004764:	1007883a 	mov	r3,r2
 4004768:	e0b7c117 	ldw	r2,-8444(fp)
 400476c:	1885883a 	add	r2,r3,r2
 4004770:	1085883a 	add	r2,r2,r2
 4004774:	1085883a 	add	r2,r2,r2
 4004778:	e0f7c104 	addi	r3,fp,-8444
 400477c:	1885883a 	add	r2,r3,r2
 4004780:	10879d04 	addi	r2,r2,7796
 4004784:	14000017 	ldw	r16,0(r2)
 4004788:	e0b7c217 	ldw	r2,-8440(fp)
 400478c:	10800044 	addi	r2,r2,1
 4004790:	01400504 	movi	r5,20
 4004794:	1009883a 	mov	r4,r2
 4004798:	40191000 	call	4019100 <__mulsi3>
 400479c:	1007883a 	mov	r3,r2
 40047a0:	e0b7c117 	ldw	r2,-8444(fp)
 40047a4:	1885883a 	add	r2,r3,r2
 40047a8:	1085883a 	add	r2,r2,r2
 40047ac:	1085883a 	add	r2,r2,r2
 40047b0:	e0f7c104 	addi	r3,fp,-8444
 40047b4:	1885883a 	add	r2,r3,r2
 40047b8:	10879d04 	addi	r2,r2,7796
 40047bc:	10800017 	ldw	r2,0(r2)
 40047c0:	80801d1e 	bne	r16,r2,4004838 <main+0x4264>
 40047c4:	e0b7c217 	ldw	r2,-8440(fp)
 40047c8:	10800044 	addi	r2,r2,1
 40047cc:	01400504 	movi	r5,20
 40047d0:	1009883a 	mov	r4,r2
 40047d4:	40191000 	call	4019100 <__mulsi3>
 40047d8:	1007883a 	mov	r3,r2
 40047dc:	e0b7c117 	ldw	r2,-8444(fp)
 40047e0:	1885883a 	add	r2,r3,r2
 40047e4:	1085883a 	add	r2,r2,r2
 40047e8:	1085883a 	add	r2,r2,r2
 40047ec:	e0f7c104 	addi	r3,fp,-8444
 40047f0:	1885883a 	add	r2,r3,r2
 40047f4:	10879d04 	addi	r2,r2,7796
 40047f8:	14000017 	ldw	r16,0(r2)
 40047fc:	e0b7c217 	ldw	r2,-8440(fp)
 4004800:	10800084 	addi	r2,r2,2
 4004804:	01400504 	movi	r5,20
 4004808:	1009883a 	mov	r4,r2
 400480c:	40191000 	call	4019100 <__mulsi3>
 4004810:	1007883a 	mov	r3,r2
 4004814:	e0b7c117 	ldw	r2,-8444(fp)
 4004818:	1885883a 	add	r2,r3,r2
 400481c:	1085883a 	add	r2,r2,r2
 4004820:	1085883a 	add	r2,r2,r2
 4004824:	e0f7c104 	addi	r3,fp,-8444
 4004828:	1885883a 	add	r2,r3,r2
 400482c:	10879d04 	addi	r2,r2,7796
 4004830:	10800017 	ldw	r2,0(r2)
 4004834:	80801e26 	beq	r16,r2,40048b0 <main+0x42dc>
 4004838:	e0b7c217 	ldw	r2,-8440(fp)
 400483c:	01400504 	movi	r5,20
 4004840:	1009883a 	mov	r4,r2
 4004844:	40191000 	call	4019100 <__mulsi3>
 4004848:	1007883a 	mov	r3,r2
 400484c:	e0b7c117 	ldw	r2,-8444(fp)
 4004850:	1885883a 	add	r2,r3,r2
 4004854:	1085883a 	add	r2,r2,r2
 4004858:	1085883a 	add	r2,r2,r2
 400485c:	e0f7c104 	addi	r3,fp,-8444
 4004860:	1885883a 	add	r2,r3,r2
 4004864:	10879d04 	addi	r2,r2,7796
 4004868:	10800017 	ldw	r2,0(r2)
 400486c:	1000321e 	bne	r2,zero,4004938 <main+0x4364>
 4004870:	e0b7c217 	ldw	r2,-8440(fp)
 4004874:	10800044 	addi	r2,r2,1
 4004878:	01400504 	movi	r5,20
 400487c:	1009883a 	mov	r4,r2
 4004880:	40191000 	call	4019100 <__mulsi3>
 4004884:	1007883a 	mov	r3,r2
 4004888:	e0b7c117 	ldw	r2,-8444(fp)
 400488c:	1885883a 	add	r2,r3,r2
 4004890:	1085883a 	add	r2,r2,r2
 4004894:	1085883a 	add	r2,r2,r2
 4004898:	e0f7c104 	addi	r3,fp,-8444
 400489c:	1885883a 	add	r2,r3,r2
 40048a0:	10879d04 	addi	r2,r2,7796
 40048a4:	10800017 	ldw	r2,0(r2)
 40048a8:	10bffd98 	cmpnei	r2,r2,-10
 40048ac:	1000221e 	bne	r2,zero,4004938 <main+0x4364>
							{
								draw(white, COLOR08_WHITE, x,y+2 );
 40048b0:	e0b7c217 	ldw	r2,-8440(fp)
 40048b4:	10c00084 	addi	r3,r2,2
 40048b8:	e0b95e04 	addi	r2,fp,-6792
 40048bc:	180f883a 	mov	r7,r3
 40048c0:	e1b7c117 	ldw	r6,-8444(fp)
 40048c4:	01403fc4 	movi	r5,255
 40048c8:	1009883a 	mov	r4,r2
 40048cc:	40003c80 	call	40003c8 <draw>
								draw(zero, COLOR08_BLACK, x,y+2 );
 40048d0:	e0b7c217 	ldw	r2,-8440(fp)
 40048d4:	10800084 	addi	r2,r2,2
 40048d8:	100f883a 	mov	r7,r2
 40048dc:	e1b7c117 	ldw	r6,-8444(fp)
 40048e0:	000b883a 	mov	r5,zero
 40048e4:	010100f4 	movhi	r4,1027
 40048e8:	21312a04 	addi	r4,r4,-15192
 40048ec:	40003c80 	call	40003c8 <draw>
								gameboard[y][x]=-10;
 40048f0:	e0b7c217 	ldw	r2,-8440(fp)
 40048f4:	01400504 	movi	r5,20
 40048f8:	1009883a 	mov	r4,r2
 40048fc:	40191000 	call	4019100 <__mulsi3>
 4004900:	1007883a 	mov	r3,r2
 4004904:	e0b7c117 	ldw	r2,-8444(fp)
 4004908:	1885883a 	add	r2,r3,r2
 400490c:	1085883a 	add	r2,r2,r2
 4004910:	1085883a 	add	r2,r2,r2
 4004914:	e0f7c104 	addi	r3,fp,-8444
 4004918:	1885883a 	add	r2,r3,r2
 400491c:	10879d04 	addi	r2,r2,7796
 4004920:	00fffd84 	movi	r3,-10
 4004924:	10c00015 	stw	r3,0(r2)
								IOWR_ALTERA_AVALON_PIO_DATA (KEY_READ_REQ_BASE, 1);
 4004928:	00c00044 	movi	r3,1
 400492c:	008200b4 	movhi	r2,2050
 4004930:	10841804 	addi	r2,r2,4192
 4004934:	10c00035 	stwio	r3,0(r2)
							}

							if ((gameboard [y][x]==gameboard [y-1][x] && gameboard [y][x]== gameboard [y+1][x]) || (gameboard [y][x]==0 && gameboard [y+1][x]==-10))//txb
 4004938:	e0b7c217 	ldw	r2,-8440(fp)
 400493c:	01400504 	movi	r5,20
 4004940:	1009883a 	mov	r4,r2
 4004944:	40191000 	call	4019100 <__mulsi3>
 4004948:	1007883a 	mov	r3,r2
 400494c:	e0b7c117 	ldw	r2,-8444(fp)
 4004950:	1885883a 	add	r2,r3,r2
 4004954:	1085883a 	add	r2,r2,r2
 4004958:	1085883a 	add	r2,r2,r2
 400495c:	e0f7c104 	addi	r3,fp,-8444
 4004960:	1885883a 	add	r2,r3,r2
 4004964:	10879d04 	addi	r2,r2,7796
 4004968:	14000017 	ldw	r16,0(r2)
 400496c:	e0b7c217 	ldw	r2,-8440(fp)
 4004970:	10bfffc4 	addi	r2,r2,-1
 4004974:	01400504 	movi	r5,20
 4004978:	1009883a 	mov	r4,r2
 400497c:	40191000 	call	4019100 <__mulsi3>
 4004980:	1007883a 	mov	r3,r2
 4004984:	e0b7c117 	ldw	r2,-8444(fp)
 4004988:	1885883a 	add	r2,r3,r2
 400498c:	1085883a 	add	r2,r2,r2
 4004990:	1085883a 	add	r2,r2,r2
 4004994:	e0f7c104 	addi	r3,fp,-8444
 4004998:	1885883a 	add	r2,r3,r2
 400499c:	10879d04 	addi	r2,r2,7796
 40049a0:	10800017 	ldw	r2,0(r2)
 40049a4:	80801c1e 	bne	r16,r2,4004a18 <main+0x4444>
 40049a8:	e0b7c217 	ldw	r2,-8440(fp)
 40049ac:	01400504 	movi	r5,20
 40049b0:	1009883a 	mov	r4,r2
 40049b4:	40191000 	call	4019100 <__mulsi3>
 40049b8:	1007883a 	mov	r3,r2
 40049bc:	e0b7c117 	ldw	r2,-8444(fp)
 40049c0:	1885883a 	add	r2,r3,r2
 40049c4:	1085883a 	add	r2,r2,r2
 40049c8:	1085883a 	add	r2,r2,r2
 40049cc:	e0f7c104 	addi	r3,fp,-8444
 40049d0:	1885883a 	add	r2,r3,r2
 40049d4:	10879d04 	addi	r2,r2,7796
 40049d8:	14000017 	ldw	r16,0(r2)
 40049dc:	e0b7c217 	ldw	r2,-8440(fp)
 40049e0:	10800044 	addi	r2,r2,1
 40049e4:	01400504 	movi	r5,20
 40049e8:	1009883a 	mov	r4,r2
 40049ec:	40191000 	call	4019100 <__mulsi3>
 40049f0:	1007883a 	mov	r3,r2
 40049f4:	e0b7c117 	ldw	r2,-8444(fp)
 40049f8:	1885883a 	add	r2,r3,r2
 40049fc:	1085883a 	add	r2,r2,r2
 4004a00:	1085883a 	add	r2,r2,r2
 4004a04:	e0f7c104 	addi	r3,fp,-8444
 4004a08:	1885883a 	add	r2,r3,r2
 4004a0c:	10879d04 	addi	r2,r2,7796
 4004a10:	10800017 	ldw	r2,0(r2)
 4004a14:	80801e26 	beq	r16,r2,4004a90 <main+0x44bc>
 4004a18:	e0b7c217 	ldw	r2,-8440(fp)
 4004a1c:	01400504 	movi	r5,20
 4004a20:	1009883a 	mov	r4,r2
 4004a24:	40191000 	call	4019100 <__mulsi3>
 4004a28:	1007883a 	mov	r3,r2
 4004a2c:	e0b7c117 	ldw	r2,-8444(fp)
 4004a30:	1885883a 	add	r2,r3,r2
 4004a34:	1085883a 	add	r2,r2,r2
 4004a38:	1085883a 	add	r2,r2,r2
 4004a3c:	e0f7c104 	addi	r3,fp,-8444
 4004a40:	1885883a 	add	r2,r3,r2
 4004a44:	10879d04 	addi	r2,r2,7796
 4004a48:	10800017 	ldw	r2,0(r2)
 4004a4c:	1000321e 	bne	r2,zero,4004b18 <main+0x4544>
 4004a50:	e0b7c217 	ldw	r2,-8440(fp)
 4004a54:	10800044 	addi	r2,r2,1
 4004a58:	01400504 	movi	r5,20
 4004a5c:	1009883a 	mov	r4,r2
 4004a60:	40191000 	call	4019100 <__mulsi3>
 4004a64:	1007883a 	mov	r3,r2
 4004a68:	e0b7c117 	ldw	r2,-8444(fp)
 4004a6c:	1885883a 	add	r2,r3,r2
 4004a70:	1085883a 	add	r2,r2,r2
 4004a74:	1085883a 	add	r2,r2,r2
 4004a78:	e0f7c104 	addi	r3,fp,-8444
 4004a7c:	1885883a 	add	r2,r3,r2
 4004a80:	10879d04 	addi	r2,r2,7796
 4004a84:	10800017 	ldw	r2,0(r2)
 4004a88:	10bffd98 	cmpnei	r2,r2,-10
 4004a8c:	1000221e 	bne	r2,zero,4004b18 <main+0x4544>
							{
								draw(white, COLOR08_WHITE, x,y+2 );
 4004a90:	e0b7c217 	ldw	r2,-8440(fp)
 4004a94:	10c00084 	addi	r3,r2,2
 4004a98:	e0b95e04 	addi	r2,fp,-6792
 4004a9c:	180f883a 	mov	r7,r3
 4004aa0:	e1b7c117 	ldw	r6,-8444(fp)
 4004aa4:	01403fc4 	movi	r5,255
 4004aa8:	1009883a 	mov	r4,r2
 4004aac:	40003c80 	call	40003c8 <draw>
								draw(zero, COLOR08_BLACK, x,y+2 );
 4004ab0:	e0b7c217 	ldw	r2,-8440(fp)
 4004ab4:	10800084 	addi	r2,r2,2
 4004ab8:	100f883a 	mov	r7,r2
 4004abc:	e1b7c117 	ldw	r6,-8444(fp)
 4004ac0:	000b883a 	mov	r5,zero
 4004ac4:	010100f4 	movhi	r4,1027
 4004ac8:	21312a04 	addi	r4,r4,-15192
 4004acc:	40003c80 	call	40003c8 <draw>
								gameboard[y][x]=-10;
 4004ad0:	e0b7c217 	ldw	r2,-8440(fp)
 4004ad4:	01400504 	movi	r5,20
 4004ad8:	1009883a 	mov	r4,r2
 4004adc:	40191000 	call	4019100 <__mulsi3>
 4004ae0:	1007883a 	mov	r3,r2
 4004ae4:	e0b7c117 	ldw	r2,-8444(fp)
 4004ae8:	1885883a 	add	r2,r3,r2
 4004aec:	1085883a 	add	r2,r2,r2
 4004af0:	1085883a 	add	r2,r2,r2
 4004af4:	e0f7c104 	addi	r3,fp,-8444
 4004af8:	1885883a 	add	r2,r3,r2
 4004afc:	10879d04 	addi	r2,r2,7796
 4004b00:	00fffd84 	movi	r3,-10
 4004b04:	10c00015 	stw	r3,0(r2)
								IOWR_ALTERA_AVALON_PIO_DATA (KEY_READ_REQ_BASE, 1);
 4004b08:	00c00044 	movi	r3,1
 4004b0c:	008200b4 	movhi	r2,2050
 4004b10:	10841804 	addi	r2,r2,4192
 4004b14:	10c00035 	stwio	r3,0(r2)
							}

							if ((gameboard [y][x]==gameboard [y-1][x] && gameboard [y][x]== gameboard [y-2][x]) || (gameboard [y][x]==0 && gameboard [y-1][x]==-10))//tmx
 4004b18:	e0b7c217 	ldw	r2,-8440(fp)
 4004b1c:	01400504 	movi	r5,20
 4004b20:	1009883a 	mov	r4,r2
 4004b24:	40191000 	call	4019100 <__mulsi3>
 4004b28:	1007883a 	mov	r3,r2
 4004b2c:	e0b7c117 	ldw	r2,-8444(fp)
 4004b30:	1885883a 	add	r2,r3,r2
 4004b34:	1085883a 	add	r2,r2,r2
 4004b38:	1085883a 	add	r2,r2,r2
 4004b3c:	e0f7c104 	addi	r3,fp,-8444
 4004b40:	1885883a 	add	r2,r3,r2
 4004b44:	10879d04 	addi	r2,r2,7796
 4004b48:	14000017 	ldw	r16,0(r2)
 4004b4c:	e0b7c217 	ldw	r2,-8440(fp)
 4004b50:	10bfffc4 	addi	r2,r2,-1
 4004b54:	01400504 	movi	r5,20
 4004b58:	1009883a 	mov	r4,r2
 4004b5c:	40191000 	call	4019100 <__mulsi3>
 4004b60:	1007883a 	mov	r3,r2
 4004b64:	e0b7c117 	ldw	r2,-8444(fp)
 4004b68:	1885883a 	add	r2,r3,r2
 4004b6c:	1085883a 	add	r2,r2,r2
 4004b70:	1085883a 	add	r2,r2,r2
 4004b74:	e0f7c104 	addi	r3,fp,-8444
 4004b78:	1885883a 	add	r2,r3,r2
 4004b7c:	10879d04 	addi	r2,r2,7796
 4004b80:	10800017 	ldw	r2,0(r2)
 4004b84:	80801c1e 	bne	r16,r2,4004bf8 <main+0x4624>
 4004b88:	e0b7c217 	ldw	r2,-8440(fp)
 4004b8c:	01400504 	movi	r5,20
 4004b90:	1009883a 	mov	r4,r2
 4004b94:	40191000 	call	4019100 <__mulsi3>
 4004b98:	1007883a 	mov	r3,r2
 4004b9c:	e0b7c117 	ldw	r2,-8444(fp)
 4004ba0:	1885883a 	add	r2,r3,r2
 4004ba4:	1085883a 	add	r2,r2,r2
 4004ba8:	1085883a 	add	r2,r2,r2
 4004bac:	e0f7c104 	addi	r3,fp,-8444
 4004bb0:	1885883a 	add	r2,r3,r2
 4004bb4:	10879d04 	addi	r2,r2,7796
 4004bb8:	14000017 	ldw	r16,0(r2)
 4004bbc:	e0b7c217 	ldw	r2,-8440(fp)
 4004bc0:	10bfff84 	addi	r2,r2,-2
 4004bc4:	01400504 	movi	r5,20
 4004bc8:	1009883a 	mov	r4,r2
 4004bcc:	40191000 	call	4019100 <__mulsi3>
 4004bd0:	1007883a 	mov	r3,r2
 4004bd4:	e0b7c117 	ldw	r2,-8444(fp)
 4004bd8:	1885883a 	add	r2,r3,r2
 4004bdc:	1085883a 	add	r2,r2,r2
 4004be0:	1085883a 	add	r2,r2,r2
 4004be4:	e0f7c104 	addi	r3,fp,-8444
 4004be8:	1885883a 	add	r2,r3,r2
 4004bec:	10879d04 	addi	r2,r2,7796
 4004bf0:	10800017 	ldw	r2,0(r2)
 4004bf4:	80801e26 	beq	r16,r2,4004c70 <main+0x469c>
 4004bf8:	e0b7c217 	ldw	r2,-8440(fp)
 4004bfc:	01400504 	movi	r5,20
 4004c00:	1009883a 	mov	r4,r2
 4004c04:	40191000 	call	4019100 <__mulsi3>
 4004c08:	1007883a 	mov	r3,r2
 4004c0c:	e0b7c117 	ldw	r2,-8444(fp)
 4004c10:	1885883a 	add	r2,r3,r2
 4004c14:	1085883a 	add	r2,r2,r2
 4004c18:	1085883a 	add	r2,r2,r2
 4004c1c:	e0f7c104 	addi	r3,fp,-8444
 4004c20:	1885883a 	add	r2,r3,r2
 4004c24:	10879d04 	addi	r2,r2,7796
 4004c28:	10800017 	ldw	r2,0(r2)
 4004c2c:	1000321e 	bne	r2,zero,4004cf8 <main+0x4724>
 4004c30:	e0b7c217 	ldw	r2,-8440(fp)
 4004c34:	10bfffc4 	addi	r2,r2,-1
 4004c38:	01400504 	movi	r5,20
 4004c3c:	1009883a 	mov	r4,r2
 4004c40:	40191000 	call	4019100 <__mulsi3>
 4004c44:	1007883a 	mov	r3,r2
 4004c48:	e0b7c117 	ldw	r2,-8444(fp)
 4004c4c:	1885883a 	add	r2,r3,r2
 4004c50:	1085883a 	add	r2,r2,r2
 4004c54:	1085883a 	add	r2,r2,r2
 4004c58:	e0f7c104 	addi	r3,fp,-8444
 4004c5c:	1885883a 	add	r2,r3,r2
 4004c60:	10879d04 	addi	r2,r2,7796
 4004c64:	10800017 	ldw	r2,0(r2)
 4004c68:	10bffd98 	cmpnei	r2,r2,-10
 4004c6c:	1000221e 	bne	r2,zero,4004cf8 <main+0x4724>
							{
								draw(white, COLOR08_WHITE, x,y+2 );
 4004c70:	e0b7c217 	ldw	r2,-8440(fp)
 4004c74:	10c00084 	addi	r3,r2,2
 4004c78:	e0b95e04 	addi	r2,fp,-6792
 4004c7c:	180f883a 	mov	r7,r3
 4004c80:	e1b7c117 	ldw	r6,-8444(fp)
 4004c84:	01403fc4 	movi	r5,255
 4004c88:	1009883a 	mov	r4,r2
 4004c8c:	40003c80 	call	40003c8 <draw>
								draw(zero, COLOR08_BLACK, x,y+2 );
 4004c90:	e0b7c217 	ldw	r2,-8440(fp)
 4004c94:	10800084 	addi	r2,r2,2
 4004c98:	100f883a 	mov	r7,r2
 4004c9c:	e1b7c117 	ldw	r6,-8444(fp)
 4004ca0:	000b883a 	mov	r5,zero
 4004ca4:	010100f4 	movhi	r4,1027
 4004ca8:	21312a04 	addi	r4,r4,-15192
 4004cac:	40003c80 	call	40003c8 <draw>
								gameboard[y][x]=-10;
 4004cb0:	e0b7c217 	ldw	r2,-8440(fp)
 4004cb4:	01400504 	movi	r5,20
 4004cb8:	1009883a 	mov	r4,r2
 4004cbc:	40191000 	call	4019100 <__mulsi3>
 4004cc0:	1007883a 	mov	r3,r2
 4004cc4:	e0b7c117 	ldw	r2,-8444(fp)
 4004cc8:	1885883a 	add	r2,r3,r2
 4004ccc:	1085883a 	add	r2,r2,r2
 4004cd0:	1085883a 	add	r2,r2,r2
 4004cd4:	e0f7c104 	addi	r3,fp,-8444
 4004cd8:	1885883a 	add	r2,r3,r2
 4004cdc:	10879d04 	addi	r2,r2,7796
 4004ce0:	00fffd84 	movi	r3,-10
 4004ce4:	10c00015 	stw	r3,0(r2)
								IOWR_ALTERA_AVALON_PIO_DATA (KEY_READ_REQ_BASE, 1);
 4004ce8:	00c00044 	movi	r3,1
 4004cec:	008200b4 	movhi	r2,2050
 4004cf0:	10841804 	addi	r2,r2,4192
 4004cf4:	10c00035 	stwio	r3,0(r2)
							}
							if(gameboard[y][x]==0 && gameboard[y-1][x]==0 && gameboard[y-2][x]==-10)
 4004cf8:	e0b7c217 	ldw	r2,-8440(fp)
 4004cfc:	01400504 	movi	r5,20
 4004d00:	1009883a 	mov	r4,r2
 4004d04:	40191000 	call	4019100 <__mulsi3>
 4004d08:	1007883a 	mov	r3,r2
 4004d0c:	e0b7c117 	ldw	r2,-8444(fp)
 4004d10:	1885883a 	add	r2,r3,r2
 4004d14:	1085883a 	add	r2,r2,r2
 4004d18:	1085883a 	add	r2,r2,r2
 4004d1c:	e0f7c104 	addi	r3,fp,-8444
 4004d20:	1885883a 	add	r2,r3,r2
 4004d24:	10879d04 	addi	r2,r2,7796
 4004d28:	10800017 	ldw	r2,0(r2)
 4004d2c:	1000411e 	bne	r2,zero,4004e34 <main+0x4860>
 4004d30:	e0b7c217 	ldw	r2,-8440(fp)
 4004d34:	10bfffc4 	addi	r2,r2,-1
 4004d38:	01400504 	movi	r5,20
 4004d3c:	1009883a 	mov	r4,r2
 4004d40:	40191000 	call	4019100 <__mulsi3>
 4004d44:	1007883a 	mov	r3,r2
 4004d48:	e0b7c117 	ldw	r2,-8444(fp)
 4004d4c:	1885883a 	add	r2,r3,r2
 4004d50:	1085883a 	add	r2,r2,r2
 4004d54:	1085883a 	add	r2,r2,r2
 4004d58:	e0f7c104 	addi	r3,fp,-8444
 4004d5c:	1885883a 	add	r2,r3,r2
 4004d60:	10879d04 	addi	r2,r2,7796
 4004d64:	10800017 	ldw	r2,0(r2)
 4004d68:	1000321e 	bne	r2,zero,4004e34 <main+0x4860>
 4004d6c:	e0b7c217 	ldw	r2,-8440(fp)
 4004d70:	10bfff84 	addi	r2,r2,-2
 4004d74:	01400504 	movi	r5,20
 4004d78:	1009883a 	mov	r4,r2
 4004d7c:	40191000 	call	4019100 <__mulsi3>
 4004d80:	1007883a 	mov	r3,r2
 4004d84:	e0b7c117 	ldw	r2,-8444(fp)
 4004d88:	1885883a 	add	r2,r3,r2
 4004d8c:	1085883a 	add	r2,r2,r2
 4004d90:	1085883a 	add	r2,r2,r2
 4004d94:	e0f7c104 	addi	r3,fp,-8444
 4004d98:	1885883a 	add	r2,r3,r2
 4004d9c:	10879d04 	addi	r2,r2,7796
 4004da0:	10800017 	ldw	r2,0(r2)
